Component: ARM Compiler 5.06 update 4 (build 422) Tool: armlink [4d35d2]

==============================================================================

Section Cross References

    main.o(i.main) refers to kos.o(i.KOS_Boot) for KOS_Boot
    main.o(i.main) refers to clk.o(i.Clk_GetMsTick) for Clk_GetMsTick
    kos.o(i.KOS_Boot) refers to app.o(i.App_Init) for App_Init
    kos.o(i.KOS_Boot) refers to sch.o(i.Sch_Arrange) for Sch_Arrange
    kos.o(i.KOS_Boot) refers to bsp.o(i.Bsp_Config) for Bsp_Config
    kos.o(i.KOS_Boot) refers to tim.o(i.Tim_Start) for Tim_Start
    kos.o(i.KOS_Boot) refers to app.o(i.App_Proc) for App_Proc
    kos.o(i.KOS_Stop) refers to tim.o(i.Tim_Stop) for Tim_Stop
    sch.o(i.Sch_Arrange) refers to sch.o(i.getSchTask) for getSchTask
    sch.o(i.Sch_Arrange) refers to sch.o(i.newSchTask) for newSchTask
    sch.o(i.Sch_Arrange) refers to sch.o(.data) for .data
    sch.o(i.Sch_Dismiss) refers to sch.o(i.getSchTask) for getSchTask
    sch.o(i.Sch_Dismiss) refers to malloc.o(i.free) for free
    sch.o(i.Sch_Dismiss) refers to sch.o(.data) for .data
    sch.o(i.Sch_Init) refers to clk.o(i.Clk_GetMsTick) for Clk_GetMsTick
    sch.o(i.Sch_Init) refers to sch.o(.data) for .data
    sch.o(i.Sch_Proc) refers to clk.o(i.Clk_GetMsTick) for Clk_GetMsTick
    sch.o(i.Sch_Proc) refers to sch.o(.data) for .data
    sch.o(i.getSchTask) refers to sch.o(.data) for .data
    sch.o(i.newSchTask) refers to malloc.o(i.malloc) for malloc
    sch.o(i.newSchTask) refers to memseta.o(.text) for __aeabi_memclr4
    act.o(i.Act_Init) refers to motor.o(i.CM_Cmd) for CM_Cmd
    act.o(i.Act_Init) refers to motor.o(i.GM_Cmd) for GM_Cmd
    act.o(i.Act_Proc) refers to sys.o(i.FS_Get) for FS_Get
    act.o(i.Act_Proc) refers to stm32f4xx_gpio.o(i.GPIO_ResetBits) for GPIO_ResetBits
    act.o(i.Act_Proc) refers to stm32f4xx_gpio.o(i.GPIO_SetBits) for GPIO_SetBits
    act.o(i.Act_Proc) refers to motor.o(i.CM_Cmd) for CM_Cmd
    act.o(i.Act_Proc) refers to ctl.o(.data) for functionalStateCtl
    act.o(i.Act_Proc) refers to ctl.o(.bss) for mecanumCurrentsCtl
    app.o(i.App_Init) refers to ios.o(i.Ios_Init) for Ios_Init
    app.o(i.App_Init) refers to cfg.o(i.Cfg_Init) for Cfg_Init
    app.o(i.App_Init) refers to act.o(i.Act_Init) for Act_Init
    app.o(i.App_Init) refers to clk.o(i.Clk_Init) for Clk_Init
    app.o(i.App_Init) refers to com.o(i.Com_Init) for Com_Init
    app.o(i.App_Init) refers to wdg.o(i.Wdg_Init) for Wdg_Init
    app.o(i.App_Init) refers to ini.o(i.Ini_Init) for Ini_Init
    app.o(i.App_Init) refers to wsm.o(i.Wsm_Init) for Wsm_Init
    app.o(i.App_Init) refers to upd.o(i.Upd_Init) for Upd_Init
    app.o(i.App_Proc) refers to wdg.o(i.Wdg_Proc) for Wdg_Proc
    app.o(i.App_Proc) refers to ini.o(i.Ini_Proc) for Ini_Proc
    app.o(i.App_Proc) refers to wsm.o(i.Wsm_Proc) for Wsm_Proc
    app.o(i.App_Proc) refers to upd.o(i.Upd_Proc) for Upd_Proc
    can.o(i.Can_Init) refers to can.o(i.Motor_Reset) for Motor_Reset
    can.o(i.Can_Init) refers to can.o(i.ZGyro_Reset) for ZGyro_Reset
    can.o(i.Can_Init) refers to can.o(.bss) for .bss
    can.o(i.Can_Proc) refers to wdg.o(i.Wdg_Feed) for Wdg_Feed
    can.o(i.Can_Proc) refers to can.o(i.ZGyro_Process) for ZGyro_Process
    can.o(i.Can_Proc) refers to can.o(i.Motor_Process) for Motor_Process
    can.o(i.Can_Proc) refers to can.o(.bss) for .bss
    can.o(i.Motor_Process) refers to ekf.o(i.Ekf_Init) for Ekf_Init
    can.o(i.Motor_Process) refers to ekf.o(i.Ekf_SetE) for Ekf_SetE
    can.o(i.Motor_Process) refers to ekf.o(i.Ekf_Proc) for Ekf_Proc
    can.o(i.Motor_Reset) refers to ekf.o(i.Ekf_Reset) for Ekf_Reset
    cfg.o(i.Cfg_ClrFlag) refers to fun.o(i.Flag_Clr) for Flag_Clr
    cfg.o(i.Cfg_ClrFlag) refers to cfg.o(.data) for .data
    cfg.o(i.Cfg_GetFlag) refers to fun.o(i.Flag_Get) for Flag_Get
    cfg.o(i.Cfg_GetFlag) refers to cfg.o(.data) for .data
    cfg.o(i.Cfg_GetVer) refers to fun.o(i.Flag_Get) for Flag_Get
    cfg.o(i.Cfg_GetVer) refers to cfg.o(.data) for .data
    cfg.o(i.Cfg_Init) refers to memcpya.o(.text) for __aeabi_memcpy4
    cfg.o(i.Cfg_Init) refers to cfg.o(i.Cfg_Load) for Cfg_Load
    cfg.o(i.Cfg_Init) refers to cfg.o(i.Cfg_GetFlag) for Cfg_GetFlag
    cfg.o(i.Cfg_Init) refers to cfg.o(.constdata) for .constdata
    cfg.o(i.Cfg_Init) refers to cfg.o(.data) for .data
    cfg.o(i.Cfg_Load) refers to fos.o(i.Fos_Read) for Fos_Read
    cfg.o(i.Cfg_Proc) refers to memcpya.o(.text) for __aeabi_memcpy4
    cfg.o(i.Cfg_Proc) refers to cfg.o(i.Cfg_Save) for Cfg_Save
    cfg.o(i.Cfg_Proc) refers to cfg.o(.constdata) for .constdata
    cfg.o(i.Cfg_Proc) refers to cfg.o(.data) for .data
    cfg.o(i.Cfg_Save) refers to fos.o(i.Fos_Write) for Fos_Write
    cfg.o(i.Cfg_SetFlag) refers to fun.o(i.Flag_Set) for Flag_Set
    cfg.o(i.Cfg_SetFlag) refers to cfg.o(.data) for .data
    cfg.o(i.Cfg_SetVer) refers to fun.o(i.Flag_Set) for Flag_Set
    cfg.o(i.Cfg_SetVer) refers to cfg.o(.data) for .data
    clk.o(i.Clk_GetMsTick) refers to clk.o(.data) for .data
    clk.o(i.Clk_GetUsTick) refers to clk.o(.data) for .data
    clk.o(i.Clk_Init) refers to clk.o(.data) for .data
    clk.o(i.Clk_Spin) refers to clk.o(.data) for .data
    cmd.o(i.Cmd_Init) refers to dci.o(i.Dci_Init) for Dci_Init
    cmd.o(i.Cmd_Init) refers to sys.o(i.FS_Clr) for FS_Clr
    cmd.o(i.Cmd_Init) refers to sys.o(i.CS_Set) for CS_Set
    cmd.o(i.Cmd_Init) refers to sys.o(i.MS_Set) for MS_Set
    cmd.o(i.Cmd_Init) refers to cmd.o(.data) for .data
    cmd.o(i.Cmd_Init) refers to cmd.o(.bss) for .bss
    cmd.o(i.Cmd_Proc) refers to mec.o(i.Mec_Decomp) for Mec_Decomp
    cmd.o(i.Cmd_Proc) refers to cmd.o(.bss) for .bss
    cmd.o(i.Cmd_Proc) refers to cfg.o(.data) for cfg
    com.o(i.Btm_Proc) refers to wdg.o(i.Wdg_Feed) for Wdg_Feed
    com.o(i.Dbi_Proc) refers to wdg.o(i.Wdg_Feed) for Wdg_Feed
    com.o(i.Tty_Proc) refers to wdg.o(i.Wdg_Feed) for Wdg_Feed
    ctl.o(i.ChassisVelocityControl) refers to pid.o(i.PID_Calc) for PID_Calc
    ctl.o(i.ChassisVelocityControl) refers to rmp.o(i.Rmp_Calc) for Rmp_Calc
    ctl.o(i.ChassisVelocityControl) refers to odo.o(.bss) for mecanumVelocityFdb
    ctl.o(i.ChassisVelocityControl) refers to cmd.o(.bss) for mecanumVelocityRef
    ctl.o(i.ChassisVelocityControl) refers to ctl.o(.bss) for .bss
    ctl.o(i.ChassisVelocityControl) refers to ctl.o(.data) for .data
    ctl.o(i.Ctl_Init) refers to cmd.o(i.Cmd_Init) for Cmd_Init
    ctl.o(i.Ctl_Init) refers to odo.o(i.Odo_Init) for Odo_Init
    ctl.o(i.Ctl_Init) refers to ctl.o(i.PID_Init) for PID_Init
    ctl.o(i.Ctl_Init) refers to ctl.o(i.Rmp_Init) for Rmp_Init
    ctl.o(i.Ctl_Init) refers to pid.o(i.PID_Reset) for PID_Reset
    ctl.o(i.Ctl_Init) refers to rmp.o(i.Rmp_Reset) for Rmp_Reset
    ctl.o(i.Ctl_Init) refers to sys.o(i.FS_Clr) for FS_Clr
    ctl.o(i.Ctl_Init) refers to sys.o(i.MS_Set) for MS_Set
    ctl.o(i.Ctl_Init) refers to ctl.o(.bss) for .bss
    ctl.o(i.Ctl_Init) refers to ctl.o(.data) for .data
    ctl.o(i.Ctl_Proc) refers to cmd.o(i.Cmd_Proc) for Cmd_Proc
    ctl.o(i.Ctl_Proc) refers to odo.o(i.Odo_Proc) for Odo_Proc
    ctl.o(i.Ctl_Proc) refers to sys.o(i.FS_Cpy) for FS_Cpy
    ctl.o(i.Ctl_Proc) refers to ctl.o(i.ChassisVelocityControl) for ChassisVelocityControl
    ctl.o(i.Ctl_Proc) refers to cmd.o(.data) for functionalStateRef
    ctl.o(i.Ctl_Proc) refers to ctl.o(.data) for .data
    ctl.o(i.PID_Init) refers to pid.o(i.PID_Config) for PID_Config
    ctl.o(i.PID_Init) refers to cfg.o(.data) for cfg
    ctl.o(i.Rmp_Init) refers to rmp.o(i.Rmp_Config) for Rmp_Config
    ctl.o(i.Rmp_Init) refers to cfg.o(.data) for cfg
    dbg.o(i.Dbg_Cmd) refers to f2d.o(.text) for __aeabi_f2d
    dbg.o(i.Dbg_Cmd) refers to printfa.o(i.__0printf) for __2printf
    dbg.o(i.Dbg_Cmd) refers to cmd.o(.bss) for chassisVelocityRef
    dbg.o(i.Dbg_DBUS) refers to printfa.o(i.__0printf) for __2printf
    dbg.o(i.Dbg_DBUS) refers to dbg.o(.conststring) for .conststring
    dbg.o(i.Dbg_Motor) refers to printfa.o(i.__0printf) for __2printf
    dbg.o(i.Dbg_Wdg) refers to wdg.o(i.Wdg_IsErrSet) for Wdg_IsErrSet
    dbg.o(i.Dbg_Wdg) refers to wdg.o(i.Wdg_GetErr) for Wdg_GetErr
    dbg.o(i.Dbg_Wdg) refers to printfa.o(i.__0printf) for __2printf
    dbg.o(i.Dbg_Wsm) refers to wsm.o(i.Wsm_GetLastWorkingState) for Wsm_GetLastWorkingState
    dbg.o(i.Dbg_Wsm) refers to wsm.o(i.Wsm_GetWorkingState) for Wsm_GetWorkingState
    dbg.o(i.Dbg_Wsm) refers to printfa.o(i.__0printf) for __2printf
    dbg.o(i.Dbg_ZGyro) refers to printfa.o(i.__0printf) for __2printf
    dci.o(i.Dci_Init) refers to rci.o(i.Rci_Init) for Rci_Init
    dci.o(i.Dci_Init) refers to hci.o(i.Hci_Init) for Hci_Init
    dci.o(i.Dci_Init) refers to dbus.o(i.DBUS_Rst) for DBUS_Rst
    dci.o(i.Dci_Init) refers to dci.o(.bss) for .bss
    dci.o(i.Dci_Proc) refers to rci.o(i.GetSwitchStates) for GetSwitchStates
    dci.o(i.Dci_Proc) refers to rci.o(i.GetSwitchEvents) for GetSwitchEvents
    dci.o(i.Dci_Proc) refers to hci.o(i.Hci_Proc) for Hci_Proc
    dci.o(i.Dci_Proc) refers to rci.o(i.Rci_Proc) for Rci_Proc
    dci.o(i.Dci_Proc) refers to rci.o(.data) for switchStates
    dci.o(i.Rcv_Proc) refers to wdg.o(i.Wdg_Feed) for Wdg_Feed
    dci.o(i.Rcv_Proc) refers to dbus.o(i.DBUS_Dec) for DBUS_Dec
    dci.o(i.Rcv_Proc) refers to dci.o(i.Dci_Proc) for Dci_Proc
    dci.o(i.Rcv_Proc) refers to dci.o(.bss) for .bss
    fos.o(i.Fos_Read) refers to flash.o(i.Flash_Read) for Flash_Read
    fos.o(i.Fos_Write) refers to flash.o(i.Flash_Write) for Flash_Write
    hci.o(i.GetChassisVelocityRef) refers to fun.o(i.map) for map
    hci.o(i.GetChassisVelocityRef) refers to maf.o(i.Maf_Proc) for Maf_Proc
    hci.o(i.GetChassisVelocityRef) refers to cfg.o(.data) for cfg
    hci.o(i.GetChassisVelocityRef) refers to hci.o(.bss) for .bss
    hci.o(i.GetChassisVelocityRef) refers to cmd.o(.bss) for chassisVelocityRef
    hci.o(i.GetFunctionalStateRef) refers to hci.o(.data) for .data
    hci.o(i.Hci_Init) refers to maf.o(i.Maf_Init) for Maf_Init
    hci.o(i.Hci_Init) refers to hci.o(.data) for .data
    hci.o(i.Hci_Init) refers to hci.o(.bss) for .bss
    hci.o(i.Hci_Proc) refers to hci.o(i.GetFunctionalStateRef) for GetFunctionalStateRef
    hci.o(i.Hci_Proc) refers to hci.o(i.GetChassisVelocityRef) for GetChassisVelocityRef
    ini.o(i.Ini_Check) refers to fun.o(i.Flag_Det) for Flag_Det
    ini.o(i.Ini_Check) refers to ini.o(.data) for .data
    ini.o(i.Ini_GetFlag) refers to fun.o(i.Flag_Get) for Flag_Get
    ini.o(i.Ini_GetFlag) refers to ini.o(.data) for .data
    ini.o(i.Ini_Init) refers to ini.o(.data) for .data
    ini.o(i.Ini_Proc) refers to can.o(i.ZGyro_Ready) for ZGyro_Ready
    ini.o(i.Ini_Proc) refers to ini.o(i.Ini_Check) for Ini_Check
    ini.o(i.Ini_Proc) refers to can.o(i.Motor_Ready) for Motor_Ready
    ini.o(i.Ini_Proc) refers to can.o(.bss) for zgyro
    ios.o(i.Ios_GetByte) refers to wdg.o(i.Wdg_IsErrSet) for Wdg_IsErrSet
    ios.o(i.Ios_GetByte) refers to tty.o(i.Tty_ReadByte) for Tty_ReadByte
    ios.o(i.Ios_GetByte) refers to dbi.o(i.Dbi_ReadByte) for Dbi_ReadByte
    ios.o(i.Ios_GetByte) refers to btm.o(i.Btm_ReadByte) for Btm_ReadByte
    ios.o(i.Ios_Init) refers to ios.o(i.Ios_SetIn) for Ios_SetIn
    ios.o(i.Ios_Init) refers to ios.o(i.Ios_SetOut) for Ios_SetOut
    ios.o(i.Ios_Init) refers to ios.o(i.Ios_GetByte) for Ios_GetByte
    ios.o(i.Ios_Init) refers to ios.o(i.Ios_PutByte) for Ios_PutByte
    ios.o(i.Ios_PutByte) refers to stm32f4xx_usart.o(i.USART_GetFlagStatus) for USART_GetFlagStatus
    ios.o(i.Ios_SetIn) refers to ios.o(.data) for .data
    ios.o(i.Ios_SetOut) refers to ios.o(.data) for .data
    ios.o(i.fgetc) refers to ios.o(.data) for .data
    ios.o(i.fputc) refers to ios.o(.data) for .data
    mec.o(i.Mec_Config) refers to mecanum.o(i.Mecanum_Config) for Mecanum_Config
    mec.o(i.Mec_Config) refers to mec.o(.bss) for .bss
    mec.o(i.Mec_Decomp) refers to mecanum.o(i.Mecanum_Decomp) for Mecanum_Decomp
    mec.o(i.Mec_Decomp) refers to mec.o(.bss) for .bss
    mec.o(i.Mec_Init) refers to mec.o(i.Mec_Config) for Mec_Config
    mec.o(i.Mec_Init) refers to cfg.o(.data) for cfg
    mec.o(i.Mec_Synthe) refers to mecanum.o(i.Mecanum_Synthe) for Mecanum_Synthe
    mec.o(i.Mec_Synthe) refers to mec.o(.bss) for .bss
    odo.o(i.Odo_Init) refers to can.o(i.Can_Init) for Can_Init
    odo.o(i.Odo_Init) refers to sys.o(i.FS_Clr) for FS_Clr
    odo.o(i.Odo_Init) refers to sys.o(i.CS_Set) for CS_Set
    odo.o(i.Odo_Init) refers to sys.o(i.MS_Set) for MS_Set
    odo.o(i.Odo_Init) refers to odo.o(.data) for .data
    odo.o(i.Odo_Init) refers to odo.o(.bss) for .bss
    odo.o(i.Odo_Proc) refers to stm32f4xx_gpio.o(i.GPIO_ReadOutputDataBit) for GPIO_ReadOutputDataBit
    odo.o(i.Odo_Proc) refers to sys.o(i.FS_Det) for FS_Det
    odo.o(i.Odo_Proc) refers to mec.o(i.Mec_Synthe) for Mec_Synthe
    odo.o(i.Odo_Proc) refers to odo.o(.data) for .data
    odo.o(i.Odo_Proc) refers to can.o(.bss) for motor
    odo.o(i.Odo_Proc) refers to odo.o(.bss) for .bss
    rci.o(i.GetChassisVelocityRef) refers to fun.o(i.map) for map
    rci.o(i.GetChassisVelocityRef) refers to cfg.o(.data) for cfg
    rci.o(i.GetChassisVelocityRef) refers to cmd.o(.bss) for chassisVelocityRef
    rci.o(i.GetSwitchEvents) refers to rci.o(.data) for .data
    rci.o(i.GetSwitchStates) refers to rci.o(.data) for .data
    rci.o(i.Rci_Init) refers to rci.o(.data) for .data
    rci.o(i.Rci_Proc) refers to rci.o(i.GetChassisVelocityRef) for GetChassisVelocityRef
    sys.o(i.FS_Clr) refers to fun.o(i.Flag_Clr) for Flag_Clr
    sys.o(i.FS_Cpy) refers to fun.o(i.Flag_Cpy) for Flag_Cpy
    sys.o(i.FS_Det) refers to fun.o(i.Flag_Det) for Flag_Det
    sys.o(i.FS_Get) refers to fun.o(i.Flag_Get) for Flag_Get
    sys.o(i.FS_Set) refers to fun.o(i.Flag_Set) for Flag_Set
    sys.o(i.FS_Tog) refers to fun.o(i.Flag_Tog) for Flag_Tog
    upd.o(i.Upd_Init) refers to mec.o(i.Mec_Init) for Mec_Init
    upd.o(i.Upd_Init) refers to ctl.o(i.Ctl_Init) for Ctl_Init
    upd.o(i.Upd_Proc) refers to wsm.o(i.Wsm_GetWorkingState) for Wsm_GetWorkingState
    upd.o(i.Upd_Proc) refers to wsm.o(i.Wsm_GetLastWorkingState) for Wsm_GetLastWorkingState
    upd.o(i.Upd_Proc) refers to upd.o(i.Upd_Init) for Upd_Init
    upd.o(i.Upd_Proc) refers to act.o(i.Act_Init) for Act_Init
    upd.o(i.Upd_Proc) refers to ctl.o(i.Ctl_Proc) for Ctl_Proc
    upd.o(i.Upd_Proc) refers to act.o(i.Act_Proc) for Act_Proc
    wdg.o(i.Wdg_Feed) refers to wdg.o(.data) for .data
    wdg.o(i.Wdg_GetErr) refers to wdg.o(.data) for .data
    wdg.o(i.Wdg_Hang) refers to wdg.o(.constdata) for .constdata
    wdg.o(i.Wdg_Hang) refers to wdg.o(.data) for .data
    wdg.o(i.Wdg_Init) refers to wdg.o(.constdata) for .constdata
    wdg.o(i.Wdg_Init) refers to wdg.o(.data) for .data
    wdg.o(i.Wdg_IsErrSet) refers to wdg.o(.data) for .data
    wdg.o(i.Wdg_Proc) refers to wdg.o(.data) for .data
    wdg.o(i.Wdg_Proc) refers to wdg.o(.constdata) for .constdata
    wsm.o(i.Wsm_GetLastWorkingState) refers to wsm.o(.data) for .data
    wsm.o(i.Wsm_GetWorkingState) refers to wsm.o(.data) for .data
    wsm.o(i.Wsm_Init) refers to wsm.o(.data) for .data
    wsm.o(i.Wsm_Proc) refers to wdg.o(i.Wdg_IsErrSet) for Wdg_IsErrSet
    wsm.o(i.Wsm_Proc) refers to ini.o(i.Ini_GetFlag) for Ini_GetFlag
    wsm.o(i.Wsm_Proc) refers to wsm.o(.data) for .data
    ahrs.o(i.AHRS_Q2Euler) refers to f2d.o(.text) for __aeabi_f2d
    ahrs.o(i.AHRS_Q2Euler) refers to atan2.o(i.__hardfp_atan2) for __hardfp_atan2
    ahrs.o(i.AHRS_Q2Euler) refers to dmul.o(.text) for __aeabi_dmul
    ahrs.o(i.AHRS_Q2Euler) refers to ddiv.o(.text) for __aeabi_ddiv
    ahrs.o(i.AHRS_Q2Euler) refers to d2f.o(.text) for __aeabi_d2f
    ahrs.o(i.AHRS_Q2Euler) refers to asin.o(i.__hardfp_asin) for __hardfp_asin
    ahrs.o(i.AHRS_Update) refers to ahrs.o(i.invSqrt) for invSqrt
    ahrs.o(i.AHRS_Update) refers to f2d.o(.text) for __aeabi_f2d
    ahrs.o(i.AHRS_Update) refers to sqrt.o(i.__hardfp_sqrt) for __hardfp_sqrt
    ahrs.o(i.AHRS_Update) refers to d2f.o(.text) for __aeabi_d2f
    cbus.o(i.CBUS_Dec) refers to crc16.o(i.CRC16Check) for CRC16Check
    cbus.o(i.CBUS_Enc) refers to crc16.o(i.CRC16Append) for CRC16Append
    crc16.o(i.CRC16Append) refers to crc16.o(i.CRC16Calc) for CRC16Calc
    crc16.o(i.CRC16Calc) refers to crc16.o(.constdata) for .constdata
    crc16.o(i.CRC16Check) refers to crc16.o(i.CRC16Calc) for CRC16Calc
    dbus.o(i.DBUS_Dec) refers to rcp.o(i.RCP_Dec) for RCP_Dec
    dbus.o(i.DBUS_Dec) refers to hcp.o(i.HCP_Dec) for HCP_Dec
    dbus.o(i.DBUS_Enc) refers to rcp.o(i.RCP_Enc) for RCP_Enc
    dbus.o(i.DBUS_Enc) refers to hcp.o(i.HCP_Enc) for HCP_Enc
    dbus.o(i.DBUS_Rst) refers to rcp.o(i.RCP_Rst) for RCP_Rst
    dbus.o(i.DBUS_Rst) refers to hcp.o(i.HCP_Rst) for HCP_Rst
    ekf.o(i.Ekf_Create) refers to malloc.o(i.malloc) for malloc
    ekf.o(i.Ekf_Create) refers to ekf.o(i.Ekf_Reset) for Ekf_Reset
    ekf.o(i.Ekf_Destroy) refers to malloc.o(i.free) for free
    ekf.o(i.Ekf_Init) refers to ekf.o(i.Ekf_Reset) for Ekf_Reset
    est.o(i.Est_Create) refers to malloc.o(i.malloc) for malloc
    est.o(i.Est_Create) refers to gdf.o(i.Gdf_Create) for Gdf_Create
    est.o(i.Est_Create) refers to gdf.o(i.Gdf_Reset) for Gdf_Reset
    est.o(i.Est_Create) refers to ekf.o(i.Ekf_Create) for Ekf_Create
    est.o(i.Est_Create) refers to ekf.o(i.Ekf_Reset) for Ekf_Reset
    est.o(i.Est_Create) refers to ekf.o(i.Ekf_SetQ) for Ekf_SetQ
    est.o(i.Est_Create) refers to malloc.o(i.free) for free
    est.o(i.Est_Create) refers to gdf.o(i.Gdf_Destroy) for Gdf_Destroy
    est.o(i.Est_Destroy) refers to gdf.o(i.Gdf_Destroy) for Gdf_Destroy
    est.o(i.Est_Destroy) refers to ekf.o(i.Ekf_Destroy) for Ekf_Destroy
    est.o(i.Est_Destroy) refers to malloc.o(i.free) for free
    est.o(i.Est_Init) refers to est.o(i.Est_Reset) for Est_Reset
    est.o(i.Est_Proc) refers to gdf.o(i.Gdf_Proc) for Gdf_Proc
    est.o(i.Est_Proc) refers to ekf.o(i.Ekf_SetR) for Ekf_SetR
    est.o(i.Est_Proc) refers to ekf.o(i.Ekf_SetE) for Ekf_SetE
    est.o(i.Est_Proc) refers to ekf.o(i.Ekf_SetD) for Ekf_SetD
    est.o(i.Est_Proc) refers to ekf.o(i.Ekf_Proc) for Ekf_Proc
    est.o(i.Est_Reset) refers to gdf.o(i.Gdf_Reset) for Gdf_Reset
    est.o(i.Est_Reset) refers to ekf.o(i.Ekf_Reset) for Ekf_Reset
    fifo.o(i.FIFO_Create) refers to malloc.o(i.malloc) for malloc
    fifo.o(i.FIFO_Create) refers to memseta.o(.text) for __aeabi_memclr4
    fifo.o(i.FIFO_Create) refers to fifo.o(i.FIFO_Flush) for FIFO_Flush
    fifo.o(i.FIFO_Create) refers to malloc.o(i.free) for free
    fifo.o(i.FIFO_Destroy) refers to malloc.o(i.free) for free
    fifo.o(i.FIFO_Flush) refers to memseta.o(.text) for __aeabi_memclr
    fifo.o(i.FIFO_Init) refers to fifo.o(i.FIFO_Flush) for FIFO_Flush
    gdf.o(i.Gdf_Create) refers to malloc.o(i.malloc) for malloc
    gdf.o(i.Gdf_Create) refers to memseta.o(.text) for __aeabi_memclr4
    gdf.o(i.Gdf_Create) refers to gdf.o(i.Gdf_Reset) for Gdf_Reset
    gdf.o(i.Gdf_Create) refers to malloc.o(i.free) for free
    gdf.o(i.Gdf_Destroy) refers to malloc.o(i.free) for free
    gdf.o(i.Gdf_Init) refers to gdf.o(i.Gdf_Reset) for Gdf_Reset
    gdf.o(i.Gdf_Reset) refers to memseta.o(.text) for __aeabi_memclr4
    maf.o(i.Maf_Create) refers to malloc.o(i.malloc) for malloc
    maf.o(i.Maf_Create) refers to maf.o(i.Maf_Reset) for Maf_Reset
    maf.o(i.Maf_Create) refers to malloc.o(i.free) for free
    maf.o(i.Maf_Destroy) refers to malloc.o(i.free) for free
    maf.o(i.Maf_Init) refers to maf.o(i.Maf_Reset) for Maf_Reset
    maf.o(i.Maf_Reset) refers to memseta.o(.text) for __aeabi_memclr4
    stack.o(i.Stack_Create) refers to malloc.o(i.malloc) for malloc
    stack.o(i.Stack_Create) refers to stack.o(i.Stack_Dump) for Stack_Dump
    stack.o(i.Stack_Create) refers to malloc.o(i.free) for free
    stack.o(i.Stack_Destroy) refers to malloc.o(i.free) for free
    stack.o(i.Stack_Dump) refers to memseta.o(.text) for __aeabi_memclr
    stack.o(i.Stack_Init) refers to stack.o(i.Stack_Dump) for Stack_Dump
    can_srv.o(i.Can1RxCallback) refers to can.o(i.Can_Proc) for Can_Proc
    can_srv.o(i.Can2RxCallback) refers to can.o(i.Can_Proc) for Can_Proc
    com_srv.o(i.BtmRxCallback) refers to com.o(i.Btm_Proc) for Btm_Proc
    com_srv.o(i.DbiRxCallback) refers to com.o(i.Dbi_Proc) for Dbi_Proc
    com_srv.o(i.TtyRxCallback) refers to com.o(i.Tty_Proc) for Tty_Proc
    tim_srv.o(i.SyncTimCallback) refers to printfa.o(i.__0printf) for __2printf
    tim_srv.o(i.TickTimCallback) refers to clk.o(i.Clk_Spin) for Clk_Spin
    bsp.o(i.Bsp_Config) refers to misc.o(i.NVIC_PriorityGroupConfig) for NVIC_PriorityGroupConfig
    bsp.o(i.Bsp_Config) refers to btm.o(i.Btm_Config) for Btm_Config
    bsp.o(i.Bsp_Config) refers to btn.o(i.Btn_Config) for Btn_Config
    bsp.o(i.Bsp_Config) refers to dbi.o(i.Dbi_Config) for Dbi_Config
    bsp.o(i.Bsp_Config) refers to led.o(i.Led_Config) for Led_Config
    bsp.o(i.Bsp_Config) refers to pwm.o(i.Pwm_Config) for Pwm_Config
    bsp.o(i.Bsp_Config) refers to rcv.o(i.Rcv_Config) for Rcv_Config
    bsp.o(i.Bsp_Config) refers to tim.o(i.Tim_Config) for Tim_Config
    bsp.o(i.Bsp_Config) refers to tty.o(i.Tty_Config) for Tty_Config
    bsp.o(i.Bsp_Config) refers to can1.o(i.Can1_Config) for Can1_Config
    bsp.o(i.Bsp_Config) refers to can2.o(i.Can2_Config) for Can2_Config
    bsp.o(i.Bsp_Config) refers to stm32f4xx_gpio.o(i.GPIO_ResetBits) for GPIO_ResetBits
    btm.o(i.Btm_Config) refers to stm32util.o(i.USART_Bind) for USART_Bind
    btm.o(i.Btm_Config) refers to stm32f4xx_usart.o(i.USART_ITConfig) for USART_ITConfig
    btm.o(i.Btm_Config) refers to stm32util.o(i.NVIC_Config) for NVIC_Config
    btm.o(i.Btm_Config) refers to fifo.o(i.FIFO_Init) for FIFO_Init
    btm.o(i.Btm_Config) refers to stm32f4xx_usart.o(i.USART_Cmd) for USART_Cmd
    btm.o(i.Btm_Config) refers to btm.o(.bss) for .bss
    btm.o(i.Btm_Print) refers to strlen.o(.text) for strlen
    btm.o(i.Btm_Print) refers to btm.o(i.Btm_Write) for Btm_Write
    btm.o(i.Btm_Read) refers to btm.o(i.Btm_ReadByte) for Btm_ReadByte
    btm.o(i.Btm_ReadByte) refers to fifo.o(i.FIFO_IsEmpty) for FIFO_IsEmpty
    btm.o(i.Btm_ReadByte) refers to stm32f4xx_usart.o(i.USART_ITConfig) for USART_ITConfig
    btm.o(i.Btm_ReadByte) refers to fifo.o(i.FIFO_Pop) for FIFO_Pop
    btm.o(i.Btm_ReadByte) refers to btm.o(.bss) for .bss
    btm.o(i.Btm_RxCnt) refers to fifo.o(i.FIFO_GetUsed) for FIFO_GetUsed
    btm.o(i.Btm_RxCnt) refers to btm.o(.bss) for .bss
    btm.o(i.Btm_Write) refers to btm.o(i.Btm_WriteByte) for Btm_WriteByte
    btm.o(i.Btm_WriteByte) refers to fifo.o(i.FIFO_IsFull) for FIFO_IsFull
    btm.o(i.Btm_WriteByte) refers to stm32f4xx_usart.o(i.USART_ITConfig) for USART_ITConfig
    btm.o(i.Btm_WriteByte) refers to fifo.o(i.FIFO_Push) for FIFO_Push
    btm.o(i.Btm_WriteByte) refers to btm.o(.bss) for .bss
    btm.o(i.USART2_IRQHandler) refers to stm32f4xx_usart.o(i.USART_GetITStatus) for USART_GetITStatus
    btm.o(i.USART2_IRQHandler) refers to fifo.o(i.FIFO_IsEmpty) for FIFO_IsEmpty
    btm.o(i.USART2_IRQHandler) refers to stm32f4xx_usart.o(i.USART_ITConfig) for USART_ITConfig
    btm.o(i.USART2_IRQHandler) refers to fifo.o(i.FIFO_Pop) for FIFO_Pop
    btm.o(i.USART2_IRQHandler) refers to stm32f4xx_usart.o(i.USART_SendData) for USART_SendData
    btm.o(i.USART2_IRQHandler) refers to stm32f4xx_usart.o(i.USART_ReceiveData) for USART_ReceiveData
    btm.o(i.USART2_IRQHandler) refers to fifo.o(i.FIFO_IsFull) for FIFO_IsFull
    btm.o(i.USART2_IRQHandler) refers to fifo.o(i.FIFO_Push) for FIFO_Push
    btm.o(i.USART2_IRQHandler) refers to com_srv.o(i.BtmRxCallback) for BtmRxCallback
    btm.o(i.USART2_IRQHandler) refers to btm.o(.bss) for .bss
    btn.o(i.Btn_Config) refers to stm32util.o(i.GPIO_In) for GPIO_In
    can1.o(i.CAN1_RX0_IRQHandler) refers to stm32f4xx_can.o(i.CAN_GetITStatus) for CAN_GetITStatus
    can1.o(i.CAN1_RX0_IRQHandler) refers to stm32f4xx_can.o(i.CAN_ClearITPendingBit) for CAN_ClearITPendingBit
    can1.o(i.CAN1_RX0_IRQHandler) refers to stm32f4xx_can.o(i.CAN_ClearFlag) for CAN_ClearFlag
    can1.o(i.CAN1_RX0_IRQHandler) refers to stm32f4xx_can.o(i.CAN_Receive) for CAN_Receive
    can1.o(i.CAN1_RX0_IRQHandler) refers to can_srv.o(i.Can1RxCallback) for Can1RxCallback
    can1.o(i.CAN1_TX_IRQHandler) refers to stm32f4xx_can.o(i.CAN_GetITStatus) for CAN_GetITStatus
    can1.o(i.CAN1_TX_IRQHandler) refers to stm32f4xx_can.o(i.CAN_ClearITPendingBit) for CAN_ClearITPendingBit
    can1.o(i.Can1_Config) refers to stm32util.o(i.GPIO_AF) for GPIO_AF
    can1.o(i.Can1_Config) refers to stm32util.o(i.NVIC_Config) for NVIC_Config
    can1.o(i.Can1_Config) refers to stm32util.o(i.CAN_Config) for CAN_Config
    can1.o(i.Can1_Config) refers to stm32util.o(i.CAN_Filter_Config) for CAN_Filter_Config
    can1.o(i.Can1_Config) refers to stm32f4xx_can.o(i.CAN_ITConfig) for CAN_ITConfig
    can2.o(i.CAN2_RX0_IRQHandler) refers to stm32f4xx_can.o(i.CAN_GetITStatus) for CAN_GetITStatus
    can2.o(i.CAN2_RX0_IRQHandler) refers to stm32f4xx_can.o(i.CAN_ClearITPendingBit) for CAN_ClearITPendingBit
    can2.o(i.CAN2_RX0_IRQHandler) refers to stm32f4xx_can.o(i.CAN_ClearFlag) for CAN_ClearFlag
    can2.o(i.CAN2_RX0_IRQHandler) refers to stm32f4xx_can.o(i.CAN_Receive) for CAN_Receive
    can2.o(i.CAN2_RX0_IRQHandler) refers to can_srv.o(i.Can2RxCallback) for Can2RxCallback
    can2.o(i.CAN2_TX_IRQHandler) refers to stm32f4xx_can.o(i.CAN_GetITStatus) for CAN_GetITStatus
    can2.o(i.CAN2_TX_IRQHandler) refers to stm32f4xx_can.o(i.CAN_ClearITPendingBit) for CAN_ClearITPendingBit
    can2.o(i.Can2_Config) refers to stm32util.o(i.GPIO_AF) for GPIO_AF
    can2.o(i.Can2_Config) refers to stm32util.o(i.NVIC_Config) for NVIC_Config
    can2.o(i.Can2_Config) refers to stm32util.o(i.CAN_Config) for CAN_Config
    can2.o(i.Can2_Config) refers to stm32util.o(i.CAN_Filter_Config) for CAN_Filter_Config
    can2.o(i.Can2_Config) refers to stm32f4xx_can.o(i.CAN_ITConfig) for CAN_ITConfig
    dbi.o(i.Dbi_Config) refers to stm32util.o(i.USART_Bind) for USART_Bind
    dbi.o(i.Dbi_Config) refers to stm32f4xx_usart.o(i.USART_ITConfig) for USART_ITConfig
    dbi.o(i.Dbi_Config) refers to stm32util.o(i.NVIC_Config) for NVIC_Config
    dbi.o(i.Dbi_Config) refers to fifo.o(i.FIFO_Init) for FIFO_Init
    dbi.o(i.Dbi_Config) refers to stm32f4xx_usart.o(i.USART_Cmd) for USART_Cmd
    dbi.o(i.Dbi_Config) refers to dbi.o(.bss) for .bss
    dbi.o(i.Dbi_Print) refers to strlen.o(.text) for strlen
    dbi.o(i.Dbi_Print) refers to dbi.o(i.Dbi_Write) for Dbi_Write
    dbi.o(i.Dbi_Read) refers to dbi.o(i.Dbi_ReadByte) for Dbi_ReadByte
    dbi.o(i.Dbi_ReadByte) refers to fifo.o(i.FIFO_IsEmpty) for FIFO_IsEmpty
    dbi.o(i.Dbi_ReadByte) refers to stm32f4xx_usart.o(i.USART_ITConfig) for USART_ITConfig
    dbi.o(i.Dbi_ReadByte) refers to fifo.o(i.FIFO_Pop) for FIFO_Pop
    dbi.o(i.Dbi_ReadByte) refers to dbi.o(.bss) for .bss
    dbi.o(i.Dbi_RxCnt) refers to fifo.o(i.FIFO_GetUsed) for FIFO_GetUsed
    dbi.o(i.Dbi_RxCnt) refers to dbi.o(.bss) for .bss
    dbi.o(i.Dbi_Write) refers to dbi.o(i.Dbi_WriteByte) for Dbi_WriteByte
    dbi.o(i.Dbi_WriteByte) refers to fifo.o(i.FIFO_IsFull) for FIFO_IsFull
    dbi.o(i.Dbi_WriteByte) refers to stm32f4xx_usart.o(i.USART_ITConfig) for USART_ITConfig
    dbi.o(i.Dbi_WriteByte) refers to fifo.o(i.FIFO_Push) for FIFO_Push
    dbi.o(i.Dbi_WriteByte) refers to dbi.o(.bss) for .bss
    dbi.o(i.USART3_IRQHandler) refers to stm32f4xx_usart.o(i.USART_GetITStatus) for USART_GetITStatus
    dbi.o(i.USART3_IRQHandler) refers to fifo.o(i.FIFO_IsEmpty) for FIFO_IsEmpty
    dbi.o(i.USART3_IRQHandler) refers to stm32f4xx_usart.o(i.USART_ITConfig) for USART_ITConfig
    dbi.o(i.USART3_IRQHandler) refers to fifo.o(i.FIFO_Pop) for FIFO_Pop
    dbi.o(i.USART3_IRQHandler) refers to stm32f4xx_usart.o(i.USART_SendData) for USART_SendData
    dbi.o(i.USART3_IRQHandler) refers to stm32f4xx_usart.o(i.USART_ReceiveData) for USART_ReceiveData
    dbi.o(i.USART3_IRQHandler) refers to fifo.o(i.FIFO_IsFull) for FIFO_IsFull
    dbi.o(i.USART3_IRQHandler) refers to fifo.o(i.FIFO_Push) for FIFO_Push
    dbi.o(i.USART3_IRQHandler) refers to com_srv.o(i.DbiRxCallback) for DbiRxCallback
    dbi.o(i.USART3_IRQHandler) refers to dbi.o(.bss) for .bss
    led.o(i.Led_Config) refers to stm32util.o(i.GPIO_Out) for GPIO_Out
    led.o(i.Led_Config) refers to stm32f4xx_gpio.o(i.GPIO_SetBits) for GPIO_SetBits
    pwm.o(i.Pwm_Config) refers to stm32util.o(i.PWM_Bind) for PWM_Bind
    pwm.o(i.Pwm_Config) refers to stm32f4xx_tim.o(i.TIM_Cmd) for TIM_Cmd
    rcv.o(i.Rcv_Config) refers to stm32util.o(i.USART_Bind) for USART_Bind
    rcv.o(i.Rcv_Config) refers to stm32f4xx_usart.o(i.USART_DMACmd) for USART_DMACmd
    rcv.o(i.Rcv_Config) refers to stm32util.o(i.DMA_Config) for DMA_Config
    rcv.o(i.Rcv_Config) refers to stm32f4xx_dma.o(i.DMA_DoubleBufferModeConfig) for DMA_DoubleBufferModeConfig
    rcv.o(i.Rcv_Config) refers to stm32f4xx_dma.o(i.DMA_DoubleBufferModeCmd) for DMA_DoubleBufferModeCmd
    rcv.o(i.Rcv_Config) refers to stm32f4xx_dma.o(i.DMA_Cmd) for DMA_Cmd
    rcv.o(i.Rcv_Config) refers to stm32util.o(i.NVIC_Config) for NVIC_Config
    rcv.o(i.Rcv_Config) refers to stm32f4xx_usart.o(i.USART_ITConfig) for USART_ITConfig
    rcv.o(i.Rcv_Config) refers to stm32f4xx_usart.o(i.USART_Cmd) for USART_Cmd
    rcv.o(i.Rcv_Config) refers to rcv.o(.bss) for .bss
    rcv.o(i.USART1_IRQHandler) refers to stm32f4xx_usart.o(i.USART_GetITStatus) for USART_GetITStatus
    rcv.o(i.USART1_IRQHandler) refers to stm32f4xx_usart.o(i.USART_ClearFlag) for USART_ClearFlag
    rcv.o(i.USART1_IRQHandler) refers to stm32f4xx_usart.o(i.USART_ClearITPendingBit) for USART_ClearITPendingBit
    rcv.o(i.USART1_IRQHandler) refers to stm32f4xx_dma.o(i.DMA_Cmd) for DMA_Cmd
    rcv.o(i.USART1_IRQHandler) refers to stm32f4xx_dma.o(i.DMA_GetCurrDataCounter) for DMA_GetCurrDataCounter
    rcv.o(i.USART1_IRQHandler) refers to stm32f4xx_dma.o(i.DMA_GetCurrentMemoryTarget) for DMA_GetCurrentMemoryTarget
    rcv.o(i.USART1_IRQHandler) refers to rcv_srv.o(i.RcvCallback) for RcvCallback
    rcv.o(i.USART1_IRQHandler) refers to rcv.o(.bss) for .bss
    stm32util.o(i.CAN_Config) refers to stm32f4xx_rcc.o(i.RCC_APB1PeriphClockCmd) for RCC_APB1PeriphClockCmd
    stm32util.o(i.CAN_Config) refers to stm32f4xx_can.o(i.CAN_Init) for CAN_Init
    stm32util.o(i.CAN_Filter_Config) refers to stm32f4xx_can.o(i.CAN_FilterInit) for CAN_FilterInit
    stm32util.o(i.DMA_Config) refers to stm32f4xx_rcc.o(i.RCC_AHB1PeriphClockCmd) for RCC_AHB1PeriphClockCmd
    stm32util.o(i.DMA_Config) refers to stm32f4xx_dma.o(i.DMA_Init) for DMA_Init
    stm32util.o(i.EXTI_Bind) refers to stm32f4xx_rcc.o(i.RCC_APB2PeriphClockCmd) for RCC_APB2PeriphClockCmd
    stm32util.o(i.EXTI_Bind) refers to stm32util.o(i.GPIO_In) for GPIO_In
    stm32util.o(i.EXTI_Bind) refers to stm32f4xx_syscfg.o(i.SYSCFG_EXTILineConfig) for SYSCFG_EXTILineConfig
    stm32util.o(i.EXTI_Bind) refers to stm32util.o(i.EXTI_Config) for EXTI_Config
    stm32util.o(i.EXTI_Config) refers to stm32f4xx_rcc.o(i.RCC_APB2PeriphClockCmd) for RCC_APB2PeriphClockCmd
    stm32util.o(i.EXTI_Config) refers to stm32f4xx_exti.o(i.EXTI_Init) for EXTI_Init
    stm32util.o(i.Encoder_Bind) refers to stm32f4xx_rcc.o(i.RCC_APB2PeriphClockCmd) for RCC_APB2PeriphClockCmd
    stm32util.o(i.Encoder_Bind) refers to stm32util.o(i.GPIO_AF) for GPIO_AF
    stm32util.o(i.Encoder_Bind) refers to stm32f4xx_rcc.o(i.RCC_APB1PeriphClockCmd) for RCC_APB1PeriphClockCmd
    stm32util.o(i.Encoder_Bind) refers to stm32f4xx_tim.o(i.TIM_EncoderInterfaceConfig) for TIM_EncoderInterfaceConfig
    stm32util.o(i.GPIO_AF) refers to stm32util.o(i.GPIO_Config) for GPIO_Config
    stm32util.o(i.GPIO_AF) refers to stm32f4xx_gpio.o(i.GPIO_PinAFConfig) for GPIO_PinAFConfig
    stm32util.o(i.GPIO_Config) refers to stm32f4xx_rcc.o(i.RCC_AHB1PeriphClockCmd) for RCC_AHB1PeriphClockCmd
    stm32util.o(i.GPIO_Config) refers to stm32f4xx_gpio.o(i.GPIO_Init) for GPIO_Init
    stm32util.o(i.GPIO_In) refers to stm32util.o(i.GPIO_Config) for GPIO_Config
    stm32util.o(i.GPIO_Out) refers to stm32util.o(i.GPIO_Config) for GPIO_Config
    stm32util.o(i.NVIC_Config) refers to misc.o(i.NVIC_Init) for NVIC_Init
    stm32util.o(i.PWM_Bind) refers to stm32util.o(i.GPIO_AF) for GPIO_AF
    stm32util.o(i.PWM_Bind) refers to stm32util.o(i.TIM_Config) for TIM_Config
    stm32util.o(i.PWM_Bind) refers to stm32util.o(i.TIM_OC_Config) for TIM_OC_Config
    stm32util.o(i.PWM_Bind) refers to stm32f4xx_tim.o(i.TIM_ARRPreloadConfig) for TIM_ARRPreloadConfig
    stm32util.o(i.TIM_Config) refers to stm32f4xx_rcc.o(i.RCC_APB2PeriphClockCmd) for RCC_APB2PeriphClockCmd
    stm32util.o(i.TIM_Config) refers to stm32f4xx_rcc.o(i.RCC_APB1PeriphClockCmd) for RCC_APB1PeriphClockCmd
    stm32util.o(i.TIM_Config) refers to stm32f4xx_tim.o(i.TIM_TimeBaseInit) for TIM_TimeBaseInit
    stm32util.o(i.TIM_OC_Config) refers to stm32f4xx_tim.o(i.TIM_OC1Init) for TIM_OC1Init
    stm32util.o(i.TIM_OC_Config) refers to stm32f4xx_tim.o(i.TIM_OC1PreloadConfig) for TIM_OC1PreloadConfig
    stm32util.o(i.TIM_OC_Config) refers to stm32f4xx_tim.o(i.TIM_OC2Init) for TIM_OC2Init
    stm32util.o(i.TIM_OC_Config) refers to stm32f4xx_tim.o(i.TIM_OC2PreloadConfig) for TIM_OC2PreloadConfig
    stm32util.o(i.TIM_OC_Config) refers to stm32f4xx_tim.o(i.TIM_OC3Init) for TIM_OC3Init
    stm32util.o(i.TIM_OC_Config) refers to stm32f4xx_tim.o(i.TIM_OC3PreloadConfig) for TIM_OC3PreloadConfig
    stm32util.o(i.TIM_OC_Config) refers to stm32f4xx_tim.o(i.TIM_OC4Init) for TIM_OC4Init
    stm32util.o(i.TIM_OC_Config) refers to stm32f4xx_tim.o(i.TIM_OC4PreloadConfig) for TIM_OC4PreloadConfig
    stm32util.o(i.USART_Bind) refers to stm32util.o(i.GPIO_AF) for GPIO_AF
    stm32util.o(i.USART_Bind) refers to stm32util.o(i.USART_Config) for USART_Config
    stm32util.o(i.USART_Config) refers to stm32f4xx_rcc.o(i.RCC_APB2PeriphClockCmd) for RCC_APB2PeriphClockCmd
    stm32util.o(i.USART_Config) refers to stm32f4xx_rcc.o(i.RCC_APB1PeriphClockCmd) for RCC_APB1PeriphClockCmd
    stm32util.o(i.USART_Config) refers to stm32f4xx_usart.o(i.USART_Init) for USART_Init
    tim.o(i.SyncTim_Config) refers to stm32util.o(i.TIM_Config) for TIM_Config
    tim.o(i.SyncTim_Config) refers to stm32util.o(i.NVIC_Config) for NVIC_Config
    tim.o(i.SyncTim_Start) refers to stm32f4xx_tim.o(i.TIM_Cmd) for TIM_Cmd
    tim.o(i.SyncTim_Start) refers to stm32f4xx_tim.o(i.TIM_ITConfig) for TIM_ITConfig
    tim.o(i.SyncTim_Start) refers to stm32f4xx_tim.o(i.TIM_ClearFlag) for TIM_ClearFlag
    tim.o(i.SyncTim_Stop) refers to stm32f4xx_tim.o(i.TIM_Cmd) for TIM_Cmd
    tim.o(i.SyncTim_Stop) refers to stm32f4xx_tim.o(i.TIM_ITConfig) for TIM_ITConfig
    tim.o(i.SyncTim_Stop) refers to stm32f4xx_tim.o(i.TIM_ClearFlag) for TIM_ClearFlag
    tim.o(i.TIM2_IRQHandler) refers to stm32f4xx_tim.o(i.TIM_GetITStatus) for TIM_GetITStatus
    tim.o(i.TIM2_IRQHandler) refers to stm32f4xx_tim.o(i.TIM_ClearITPendingBit) for TIM_ClearITPendingBit
    tim.o(i.TIM2_IRQHandler) refers to stm32f4xx_tim.o(i.TIM_ClearFlag) for TIM_ClearFlag
    tim.o(i.TIM2_IRQHandler) refers to tim_srv.o(i.TickTimCallback) for TickTimCallback
    tim.o(i.TIM6_DAC_IRQHandler) refers to stm32f4xx_tim.o(i.TIM_GetITStatus) for TIM_GetITStatus
    tim.o(i.TIM6_DAC_IRQHandler) refers to stm32f4xx_tim.o(i.TIM_ClearITPendingBit) for TIM_ClearITPendingBit
    tim.o(i.TIM6_DAC_IRQHandler) refers to stm32f4xx_tim.o(i.TIM_ClearFlag) for TIM_ClearFlag
    tim.o(i.TIM6_DAC_IRQHandler) refers to tim_srv.o(i.SyncTimCallback) for SyncTimCallback
    tim.o(i.TickTim_Config) refers to stm32util.o(i.TIM_Config) for TIM_Config
    tim.o(i.TickTim_Config) refers to stm32util.o(i.NVIC_Config) for NVIC_Config
    tim.o(i.TickTim_Start) refers to stm32f4xx_tim.o(i.TIM_Cmd) for TIM_Cmd
    tim.o(i.TickTim_Start) refers to stm32f4xx_tim.o(i.TIM_ITConfig) for TIM_ITConfig
    tim.o(i.TickTim_Start) refers to stm32f4xx_tim.o(i.TIM_ClearFlag) for TIM_ClearFlag
    tim.o(i.TickTim_Stop) refers to stm32f4xx_tim.o(i.TIM_Cmd) for TIM_Cmd
    tim.o(i.TickTim_Stop) refers to stm32f4xx_tim.o(i.TIM_ITConfig) for TIM_ITConfig
    tim.o(i.TickTim_Stop) refers to stm32f4xx_tim.o(i.TIM_ClearFlag) for TIM_ClearFlag
    tim.o(i.Tim_Config) refers to tim.o(i.TickTim_Config) for TickTim_Config
    tim.o(i.Tim_Config) refers to tim.o(i.SyncTim_Config) for SyncTim_Config
    tim.o(i.Tim_Start) refers to tim.o(i.TickTim_Start) for TickTim_Start
    tim.o(i.Tim_Start) refers to tim.o(i.SyncTim_Start) for SyncTim_Start
    tim.o(i.Tim_Stop) refers to tim.o(i.TickTim_Stop) for TickTim_Stop
    tim.o(i.Tim_Stop) refers to tim.o(i.SyncTim_Stop) for SyncTim_Stop
    tty.o(i.Tty_Config) refers to stm32util.o(i.USART_Bind) for USART_Bind
    tty.o(i.Tty_Config) refers to stm32f4xx_usart.o(i.USART_ITConfig) for USART_ITConfig
    tty.o(i.Tty_Config) refers to stm32util.o(i.NVIC_Config) for NVIC_Config
    tty.o(i.Tty_Config) refers to fifo.o(i.FIFO_Init) for FIFO_Init
    tty.o(i.Tty_Config) refers to stm32f4xx_usart.o(i.USART_Cmd) for USART_Cmd
    tty.o(i.Tty_Config) refers to tty.o(.bss) for .bss
    tty.o(i.Tty_Print) refers to strlen.o(.text) for strlen
    tty.o(i.Tty_Print) refers to tty.o(i.Tty_Write) for Tty_Write
    tty.o(i.Tty_Read) refers to tty.o(i.Tty_ReadByte) for Tty_ReadByte
    tty.o(i.Tty_ReadByte) refers to fifo.o(i.FIFO_IsEmpty) for FIFO_IsEmpty
    tty.o(i.Tty_ReadByte) refers to stm32f4xx_usart.o(i.USART_ITConfig) for USART_ITConfig
    tty.o(i.Tty_ReadByte) refers to fifo.o(i.FIFO_Pop) for FIFO_Pop
    tty.o(i.Tty_ReadByte) refers to tty.o(.bss) for .bss
    tty.o(i.Tty_RxCnt) refers to fifo.o(i.FIFO_GetUsed) for FIFO_GetUsed
    tty.o(i.Tty_RxCnt) refers to tty.o(.bss) for .bss
    tty.o(i.Tty_Write) refers to tty.o(i.Tty_WriteByte) for Tty_WriteByte
    tty.o(i.Tty_WriteByte) refers to fifo.o(i.FIFO_IsFull) for FIFO_IsFull
    tty.o(i.Tty_WriteByte) refers to stm32f4xx_usart.o(i.USART_ITConfig) for USART_ITConfig
    tty.o(i.Tty_WriteByte) refers to fifo.o(i.FIFO_Push) for FIFO_Push
    tty.o(i.Tty_WriteByte) refers to tty.o(.bss) for .bss
    tty.o(i.USART6_IRQHandler) refers to stm32f4xx_usart.o(i.USART_GetITStatus) for USART_GetITStatus
    tty.o(i.USART6_IRQHandler) refers to fifo.o(i.FIFO_IsEmpty) for FIFO_IsEmpty
    tty.o(i.USART6_IRQHandler) refers to stm32f4xx_usart.o(i.USART_ITConfig) for USART_ITConfig
    tty.o(i.USART6_IRQHandler) refers to fifo.o(i.FIFO_Pop) for FIFO_Pop
    tty.o(i.USART6_IRQHandler) refers to stm32f4xx_usart.o(i.USART_SendData) for USART_SendData
    tty.o(i.USART6_IRQHandler) refers to stm32f4xx_usart.o(i.USART_ReceiveData) for USART_ReceiveData
    tty.o(i.USART6_IRQHandler) refers to fifo.o(i.FIFO_IsFull) for FIFO_IsFull
    tty.o(i.USART6_IRQHandler) refers to fifo.o(i.FIFO_Push) for FIFO_Push
    tty.o(i.USART6_IRQHandler) refers to com_srv.o(i.TtyRxCallback) for TtyRxCallback
    tty.o(i.USART6_IRQHandler) refers to tty.o(.bss) for .bss
    flash.o(i.Flash_Write) refers to flash.o(i.Flash_GetSector) for Flash_GetSector
    flash.o(i.Flash_Write) refers to stm32f4xx_flash.o(i.FLASH_Unlock) for FLASH_Unlock
    flash.o(i.Flash_Write) refers to stm32f4xx_flash.o(i.FLASH_DataCacheCmd) for FLASH_DataCacheCmd
    flash.o(i.Flash_Write) refers to stm32f4xx_flash.o(i.FLASH_EraseSector) for FLASH_EraseSector
    flash.o(i.Flash_Write) refers to stm32f4xx_flash.o(i.FLASH_ProgramByte) for FLASH_ProgramByte
    flash.o(i.Flash_Write) refers to stm32f4xx_flash.o(i.FLASH_Lock) for FLASH_Lock
    motor.o(i.CM_Cmd) refers to stm32f4xx_can.o(i.CAN_Transmit) for CAN_Transmit
    motor.o(i.GM_Cmd) refers to stm32f4xx_can.o(i.CAN_Transmit) for CAN_Transmit
    zgyro.o(i.ZGyro_RST) refers to stm32f4xx_can.o(i.CAN_Transmit) for CAN_Transmit
    stm32f4xx_adc.o(i.ADC_DeInit) refers to stm32f4xx_rcc.o(i.RCC_APB2PeriphResetCmd) for RCC_APB2PeriphResetCmd
    stm32f4xx_can.o(i.CAN_DeInit) refers to stm32f4xx_rcc.o(i.RCC_APB1PeriphResetCmd) for RCC_APB1PeriphResetCmd
    stm32f4xx_can.o(i.CAN_GetITStatus) refers to stm32f4xx_can.o(i.CheckITStatus) for CheckITStatus
    stm32f4xx_cryp.o(i.CRYP_DeInit) refers to stm32f4xx_rcc.o(i.RCC_AHB2PeriphResetCmd) for RCC_AHB2PeriphResetCmd
    stm32f4xx_cryp_aes.o(i.CRYP_AES_CBC) refers to stm32f4xx_cryp.o(i.CRYP_KeyStructInit) for CRYP_KeyStructInit
    stm32f4xx_cryp_aes.o(i.CRYP_AES_CBC) refers to stm32f4xx_cryp.o(i.CRYP_KeyInit) for CRYP_KeyInit
    stm32f4xx_cryp_aes.o(i.CRYP_AES_CBC) refers to stm32f4xx_cryp.o(i.CRYP_Init) for CRYP_Init
    stm32f4xx_cryp_aes.o(i.CRYP_AES_CBC) refers to stm32f4xx_cryp.o(i.CRYP_IVInit) for CRYP_IVInit
    stm32f4xx_cryp_aes.o(i.CRYP_AES_CBC) refers to stm32f4xx_cryp.o(i.CRYP_FIFOFlush) for CRYP_FIFOFlush
    stm32f4xx_cryp_aes.o(i.CRYP_AES_CBC) refers to stm32f4xx_cryp.o(i.CRYP_Cmd) for CRYP_Cmd
    stm32f4xx_cryp_aes.o(i.CRYP_AES_CBC) refers to stm32f4xx_cryp.o(i.CRYP_GetCmdStatus) for CRYP_GetCmdStatus
    stm32f4xx_cryp_aes.o(i.CRYP_AES_CBC) refers to stm32f4xx_cryp.o(i.CRYP_GetFlagStatus) for CRYP_GetFlagStatus
    stm32f4xx_cryp_aes.o(i.CRYP_AES_CBC) refers to stm32f4xx_cryp.o(i.CRYP_DataIn) for CRYP_DataIn
    stm32f4xx_cryp_aes.o(i.CRYP_AES_CBC) refers to stm32f4xx_cryp.o(i.CRYP_DataOut) for CRYP_DataOut
    stm32f4xx_cryp_aes.o(i.CRYP_AES_CCM) refers to stm32f4xx_cryp.o(i.CRYP_KeyStructInit) for CRYP_KeyStructInit
    stm32f4xx_cryp_aes.o(i.CRYP_AES_CCM) refers to stm32f4xx_cryp.o(i.CRYP_FIFOFlush) for CRYP_FIFOFlush
    stm32f4xx_cryp_aes.o(i.CRYP_AES_CCM) refers to stm32f4xx_cryp.o(i.CRYP_KeyInit) for CRYP_KeyInit
    stm32f4xx_cryp_aes.o(i.CRYP_AES_CCM) refers to stm32f4xx_cryp.o(i.CRYP_IVInit) for CRYP_IVInit
    stm32f4xx_cryp_aes.o(i.CRYP_AES_CCM) refers to stm32f4xx_cryp.o(i.CRYP_Init) for CRYP_Init
    stm32f4xx_cryp_aes.o(i.CRYP_AES_CCM) refers to stm32f4xx_cryp.o(i.CRYP_PhaseConfig) for CRYP_PhaseConfig
    stm32f4xx_cryp_aes.o(i.CRYP_AES_CCM) refers to stm32f4xx_cryp.o(i.CRYP_DataIn) for CRYP_DataIn
    stm32f4xx_cryp_aes.o(i.CRYP_AES_CCM) refers to stm32f4xx_cryp.o(i.CRYP_Cmd) for CRYP_Cmd
    stm32f4xx_cryp_aes.o(i.CRYP_AES_CCM) refers to stm32f4xx_cryp.o(i.CRYP_GetCmdStatus) for CRYP_GetCmdStatus
    stm32f4xx_cryp_aes.o(i.CRYP_AES_CCM) refers to stm32f4xx_cryp.o(i.CRYP_GetFlagStatus) for CRYP_GetFlagStatus
    stm32f4xx_cryp_aes.o(i.CRYP_AES_CCM) refers to stm32f4xx_cryp.o(i.CRYP_DataOut) for CRYP_DataOut
    stm32f4xx_cryp_aes.o(i.CRYP_AES_CTR) refers to stm32f4xx_cryp.o(i.CRYP_KeyStructInit) for CRYP_KeyStructInit
    stm32f4xx_cryp_aes.o(i.CRYP_AES_CTR) refers to stm32f4xx_cryp.o(i.CRYP_KeyInit) for CRYP_KeyInit
    stm32f4xx_cryp_aes.o(i.CRYP_AES_CTR) refers to stm32f4xx_cryp.o(i.CRYP_Init) for CRYP_Init
    stm32f4xx_cryp_aes.o(i.CRYP_AES_CTR) refers to stm32f4xx_cryp.o(i.CRYP_IVInit) for CRYP_IVInit
    stm32f4xx_cryp_aes.o(i.CRYP_AES_CTR) refers to stm32f4xx_cryp.o(i.CRYP_FIFOFlush) for CRYP_FIFOFlush
    stm32f4xx_cryp_aes.o(i.CRYP_AES_CTR) refers to stm32f4xx_cryp.o(i.CRYP_Cmd) for CRYP_Cmd
    stm32f4xx_cryp_aes.o(i.CRYP_AES_CTR) refers to stm32f4xx_cryp.o(i.CRYP_GetCmdStatus) for CRYP_GetCmdStatus
    stm32f4xx_cryp_aes.o(i.CRYP_AES_CTR) refers to stm32f4xx_cryp.o(i.CRYP_DataIn) for CRYP_DataIn
    stm32f4xx_cryp_aes.o(i.CRYP_AES_CTR) refers to stm32f4xx_cryp.o(i.CRYP_GetFlagStatus) for CRYP_GetFlagStatus
    stm32f4xx_cryp_aes.o(i.CRYP_AES_CTR) refers to stm32f4xx_cryp.o(i.CRYP_DataOut) for CRYP_DataOut
    stm32f4xx_cryp_aes.o(i.CRYP_AES_ECB) refers to stm32f4xx_cryp.o(i.CRYP_KeyStructInit) for CRYP_KeyStructInit
    stm32f4xx_cryp_aes.o(i.CRYP_AES_ECB) refers to stm32f4xx_cryp.o(i.CRYP_KeyInit) for CRYP_KeyInit
    stm32f4xx_cryp_aes.o(i.CRYP_AES_ECB) refers to stm32f4xx_cryp.o(i.CRYP_Init) for CRYP_Init
    stm32f4xx_cryp_aes.o(i.CRYP_AES_ECB) refers to stm32f4xx_cryp.o(i.CRYP_FIFOFlush) for CRYP_FIFOFlush
    stm32f4xx_cryp_aes.o(i.CRYP_AES_ECB) refers to stm32f4xx_cryp.o(i.CRYP_Cmd) for CRYP_Cmd
    stm32f4xx_cryp_aes.o(i.CRYP_AES_ECB) refers to stm32f4xx_cryp.o(i.CRYP_GetCmdStatus) for CRYP_GetCmdStatus
    stm32f4xx_cryp_aes.o(i.CRYP_AES_ECB) refers to stm32f4xx_cryp.o(i.CRYP_GetFlagStatus) for CRYP_GetFlagStatus
    stm32f4xx_cryp_aes.o(i.CRYP_AES_ECB) refers to stm32f4xx_cryp.o(i.CRYP_DataIn) for CRYP_DataIn
    stm32f4xx_cryp_aes.o(i.CRYP_AES_ECB) refers to stm32f4xx_cryp.o(i.CRYP_DataOut) for CRYP_DataOut
    stm32f4xx_cryp_aes.o(i.CRYP_AES_GCM) refers to stm32f4xx_cryp.o(i.CRYP_KeyStructInit) for CRYP_KeyStructInit
    stm32f4xx_cryp_aes.o(i.CRYP_AES_GCM) refers to stm32f4xx_cryp.o(i.CRYP_FIFOFlush) for CRYP_FIFOFlush
    stm32f4xx_cryp_aes.o(i.CRYP_AES_GCM) refers to stm32f4xx_cryp.o(i.CRYP_KeyInit) for CRYP_KeyInit
    stm32f4xx_cryp_aes.o(i.CRYP_AES_GCM) refers to stm32f4xx_cryp.o(i.CRYP_IVInit) for CRYP_IVInit
    stm32f4xx_cryp_aes.o(i.CRYP_AES_GCM) refers to stm32f4xx_cryp.o(i.CRYP_Init) for CRYP_Init
    stm32f4xx_cryp_aes.o(i.CRYP_AES_GCM) refers to stm32f4xx_cryp.o(i.CRYP_PhaseConfig) for CRYP_PhaseConfig
    stm32f4xx_cryp_aes.o(i.CRYP_AES_GCM) refers to stm32f4xx_cryp.o(i.CRYP_Cmd) for CRYP_Cmd
    stm32f4xx_cryp_aes.o(i.CRYP_AES_GCM) refers to stm32f4xx_cryp.o(i.CRYP_GetCmdStatus) for CRYP_GetCmdStatus
    stm32f4xx_cryp_aes.o(i.CRYP_AES_GCM) refers to stm32f4xx_cryp.o(i.CRYP_GetFlagStatus) for CRYP_GetFlagStatus
    stm32f4xx_cryp_aes.o(i.CRYP_AES_GCM) refers to stm32f4xx_cryp.o(i.CRYP_DataIn) for CRYP_DataIn
    stm32f4xx_cryp_aes.o(i.CRYP_AES_GCM) refers to stm32f4xx_cryp.o(i.CRYP_DataOut) for CRYP_DataOut
    stm32f4xx_cryp_des.o(i.CRYP_DES_CBC) refers to stm32f4xx_cryp.o(i.CRYP_KeyStructInit) for CRYP_KeyStructInit
    stm32f4xx_cryp_des.o(i.CRYP_DES_CBC) refers to stm32f4xx_cryp.o(i.CRYP_Init) for CRYP_Init
    stm32f4xx_cryp_des.o(i.CRYP_DES_CBC) refers to stm32f4xx_cryp.o(i.CRYP_KeyInit) for CRYP_KeyInit
    stm32f4xx_cryp_des.o(i.CRYP_DES_CBC) refers to stm32f4xx_cryp.o(i.CRYP_IVInit) for CRYP_IVInit
    stm32f4xx_cryp_des.o(i.CRYP_DES_CBC) refers to stm32f4xx_cryp.o(i.CRYP_FIFOFlush) for CRYP_FIFOFlush
    stm32f4xx_cryp_des.o(i.CRYP_DES_CBC) refers to stm32f4xx_cryp.o(i.CRYP_Cmd) for CRYP_Cmd
    stm32f4xx_cryp_des.o(i.CRYP_DES_CBC) refers to stm32f4xx_cryp.o(i.CRYP_GetCmdStatus) for CRYP_GetCmdStatus
    stm32f4xx_cryp_des.o(i.CRYP_DES_CBC) refers to stm32f4xx_cryp.o(i.CRYP_DataIn) for CRYP_DataIn
    stm32f4xx_cryp_des.o(i.CRYP_DES_CBC) refers to stm32f4xx_cryp.o(i.CRYP_GetFlagStatus) for CRYP_GetFlagStatus
    stm32f4xx_cryp_des.o(i.CRYP_DES_CBC) refers to stm32f4xx_cryp.o(i.CRYP_DataOut) for CRYP_DataOut
    stm32f4xx_cryp_des.o(i.CRYP_DES_ECB) refers to stm32f4xx_cryp.o(i.CRYP_KeyStructInit) for CRYP_KeyStructInit
    stm32f4xx_cryp_des.o(i.CRYP_DES_ECB) refers to stm32f4xx_cryp.o(i.CRYP_Init) for CRYP_Init
    stm32f4xx_cryp_des.o(i.CRYP_DES_ECB) refers to stm32f4xx_cryp.o(i.CRYP_KeyInit) for CRYP_KeyInit
    stm32f4xx_cryp_des.o(i.CRYP_DES_ECB) refers to stm32f4xx_cryp.o(i.CRYP_FIFOFlush) for CRYP_FIFOFlush
    stm32f4xx_cryp_des.o(i.CRYP_DES_ECB) refers to stm32f4xx_cryp.o(i.CRYP_Cmd) for CRYP_Cmd
    stm32f4xx_cryp_des.o(i.CRYP_DES_ECB) refers to stm32f4xx_cryp.o(i.CRYP_GetCmdStatus) for CRYP_GetCmdStatus
    stm32f4xx_cryp_des.o(i.CRYP_DES_ECB) refers to stm32f4xx_cryp.o(i.CRYP_DataIn) for CRYP_DataIn
    stm32f4xx_cryp_des.o(i.CRYP_DES_ECB) refers to stm32f4xx_cryp.o(i.CRYP_GetFlagStatus) for CRYP_GetFlagStatus
    stm32f4xx_cryp_des.o(i.CRYP_DES_ECB) refers to stm32f4xx_cryp.o(i.CRYP_DataOut) for CRYP_DataOut
    stm32f4xx_cryp_tdes.o(i.CRYP_TDES_CBC) refers to stm32f4xx_cryp.o(i.CRYP_KeyStructInit) for CRYP_KeyStructInit
    stm32f4xx_cryp_tdes.o(i.CRYP_TDES_CBC) refers to stm32f4xx_cryp.o(i.CRYP_Init) for CRYP_Init
    stm32f4xx_cryp_tdes.o(i.CRYP_TDES_CBC) refers to stm32f4xx_cryp.o(i.CRYP_KeyInit) for CRYP_KeyInit
    stm32f4xx_cryp_tdes.o(i.CRYP_TDES_CBC) refers to stm32f4xx_cryp.o(i.CRYP_IVInit) for CRYP_IVInit
    stm32f4xx_cryp_tdes.o(i.CRYP_TDES_CBC) refers to stm32f4xx_cryp.o(i.CRYP_FIFOFlush) for CRYP_FIFOFlush
    stm32f4xx_cryp_tdes.o(i.CRYP_TDES_CBC) refers to stm32f4xx_cryp.o(i.CRYP_Cmd) for CRYP_Cmd
    stm32f4xx_cryp_tdes.o(i.CRYP_TDES_CBC) refers to stm32f4xx_cryp.o(i.CRYP_GetCmdStatus) for CRYP_GetCmdStatus
    stm32f4xx_cryp_tdes.o(i.CRYP_TDES_CBC) refers to stm32f4xx_cryp.o(i.CRYP_DataIn) for CRYP_DataIn
    stm32f4xx_cryp_tdes.o(i.CRYP_TDES_CBC) refers to stm32f4xx_cryp.o(i.CRYP_GetFlagStatus) for CRYP_GetFlagStatus
    stm32f4xx_cryp_tdes.o(i.CRYP_TDES_CBC) refers to stm32f4xx_cryp.o(i.CRYP_DataOut) for CRYP_DataOut
    stm32f4xx_cryp_tdes.o(i.CRYP_TDES_ECB) refers to stm32f4xx_cryp.o(i.CRYP_KeyStructInit) for CRYP_KeyStructInit
    stm32f4xx_cryp_tdes.o(i.CRYP_TDES_ECB) refers to stm32f4xx_cryp.o(i.CRYP_Init) for CRYP_Init
    stm32f4xx_cryp_tdes.o(i.CRYP_TDES_ECB) refers to stm32f4xx_cryp.o(i.CRYP_KeyInit) for CRYP_KeyInit
    stm32f4xx_cryp_tdes.o(i.CRYP_TDES_ECB) refers to stm32f4xx_cryp.o(i.CRYP_FIFOFlush) for CRYP_FIFOFlush
    stm32f4xx_cryp_tdes.o(i.CRYP_TDES_ECB) refers to stm32f4xx_cryp.o(i.CRYP_Cmd) for CRYP_Cmd
    stm32f4xx_cryp_tdes.o(i.CRYP_TDES_ECB) refers to stm32f4xx_cryp.o(i.CRYP_GetCmdStatus) for CRYP_GetCmdStatus
    stm32f4xx_cryp_tdes.o(i.CRYP_TDES_ECB) refers to stm32f4xx_cryp.o(i.CRYP_DataIn) for CRYP_DataIn
    stm32f4xx_cryp_tdes.o(i.CRYP_TDES_ECB) refers to stm32f4xx_cryp.o(i.CRYP_GetFlagStatus) for CRYP_GetFlagStatus
    stm32f4xx_cryp_tdes.o(i.CRYP_TDES_ECB) refers to stm32f4xx_cryp.o(i.CRYP_DataOut) for CRYP_DataOut
    stm32f4xx_dac.o(i.DAC_DeInit) refers to stm32f4xx_rcc.o(i.RCC_APB1PeriphResetCmd) for RCC_APB1PeriphResetCmd
    stm32f4xx_dma2d.o(i.DMA2D_DeInit) refers to stm32f4xx_rcc.o(i.RCC_AHB1PeriphResetCmd) for RCC_AHB1PeriphResetCmd
    stm32f4xx_flash.o(i.FLASH_EraseAllBank1Sectors) refers to stm32f4xx_flash.o(i.FLASH_WaitForLastOperation) for FLASH_WaitForLastOperation
    stm32f4xx_flash.o(i.FLASH_EraseAllBank2Sectors) refers to stm32f4xx_flash.o(i.FLASH_WaitForLastOperation) for FLASH_WaitForLastOperation
    stm32f4xx_flash.o(i.FLASH_EraseAllSectors) refers to stm32f4xx_flash.o(i.FLASH_WaitForLastOperation) for FLASH_WaitForLastOperation
    stm32f4xx_flash.o(i.FLASH_EraseSector) refers to stm32f4xx_flash.o(i.FLASH_WaitForLastOperation) for FLASH_WaitForLastOperation
    stm32f4xx_flash.o(i.FLASH_OB_Launch) refers to stm32f4xx_flash.o(i.FLASH_WaitForLastOperation) for FLASH_WaitForLastOperation
    stm32f4xx_flash.o(i.FLASH_OB_PCROP1Config) refers to stm32f4xx_flash.o(i.FLASH_WaitForLastOperation) for FLASH_WaitForLastOperation
    stm32f4xx_flash.o(i.FLASH_OB_PCROPConfig) refers to stm32f4xx_flash.o(i.FLASH_WaitForLastOperation) for FLASH_WaitForLastOperation
    stm32f4xx_flash.o(i.FLASH_OB_RDPConfig) refers to stm32f4xx_flash.o(i.FLASH_WaitForLastOperation) for FLASH_WaitForLastOperation
    stm32f4xx_flash.o(i.FLASH_OB_UserConfig) refers to stm32f4xx_flash.o(i.FLASH_WaitForLastOperation) for FLASH_WaitForLastOperation
    stm32f4xx_flash.o(i.FLASH_OB_WRP1Config) refers to stm32f4xx_flash.o(i.FLASH_WaitForLastOperation) for FLASH_WaitForLastOperation
    stm32f4xx_flash.o(i.FLASH_OB_WRPConfig) refers to stm32f4xx_flash.o(i.FLASH_WaitForLastOperation) for FLASH_WaitForLastOperation
    stm32f4xx_flash.o(i.FLASH_ProgramByte) refers to stm32f4xx_flash.o(i.FLASH_WaitForLastOperation) for FLASH_WaitForLastOperation
    stm32f4xx_flash.o(i.FLASH_ProgramDoubleWord) refers to stm32f4xx_flash.o(i.FLASH_WaitForLastOperation) for FLASH_WaitForLastOperation
    stm32f4xx_flash.o(i.FLASH_ProgramHalfWord) refers to stm32f4xx_flash.o(i.FLASH_WaitForLastOperation) for FLASH_WaitForLastOperation
    stm32f4xx_flash.o(i.FLASH_ProgramWord) refers to stm32f4xx_flash.o(i.FLASH_WaitForLastOperation) for FLASH_WaitForLastOperation
    stm32f4xx_flash.o(i.FLASH_WaitForLastOperation) refers to stm32f4xx_flash.o(i.FLASH_GetStatus) for FLASH_GetStatus
    stm32f4xx_fmc.o(i.FMC_NORSRAMStructInit) refers to stm32f4xx_fmc.o(.constdata) for .constdata
    stm32f4xx_gpio.o(i.GPIO_DeInit) refers to stm32f4xx_rcc.o(i.RCC_AHB1PeriphResetCmd) for RCC_AHB1PeriphResetCmd
    stm32f4xx_hash.o(i.HASH_DeInit) refers to stm32f4xx_rcc.o(i.RCC_AHB2PeriphResetCmd) for RCC_AHB2PeriphResetCmd
    stm32f4xx_hash_md5.o(i.HASH_MD5) refers to stm32f4xx_hash.o(i.HASH_DeInit) for HASH_DeInit
    stm32f4xx_hash_md5.o(i.HASH_MD5) refers to stm32f4xx_hash.o(i.HASH_Init) for HASH_Init
    stm32f4xx_hash_md5.o(i.HASH_MD5) refers to stm32f4xx_hash.o(i.HASH_SetLastWordValidBitsNbr) for HASH_SetLastWordValidBitsNbr
    stm32f4xx_hash_md5.o(i.HASH_MD5) refers to stm32f4xx_hash.o(i.HASH_DataIn) for HASH_DataIn
    stm32f4xx_hash_md5.o(i.HASH_MD5) refers to stm32f4xx_hash.o(i.HASH_StartDigest) for HASH_StartDigest
    stm32f4xx_hash_md5.o(i.HASH_MD5) refers to stm32f4xx_hash.o(i.HASH_GetFlagStatus) for HASH_GetFlagStatus
    stm32f4xx_hash_md5.o(i.HASH_MD5) refers to stm32f4xx_hash.o(i.HASH_GetDigest) for HASH_GetDigest
    stm32f4xx_hash_md5.o(i.HMAC_MD5) refers to stm32f4xx_hash.o(i.HASH_DeInit) for HASH_DeInit
    stm32f4xx_hash_md5.o(i.HMAC_MD5) refers to stm32f4xx_hash.o(i.HASH_Init) for HASH_Init
    stm32f4xx_hash_md5.o(i.HMAC_MD5) refers to stm32f4xx_hash.o(i.HASH_SetLastWordValidBitsNbr) for HASH_SetLastWordValidBitsNbr
    stm32f4xx_hash_md5.o(i.HMAC_MD5) refers to stm32f4xx_hash.o(i.HASH_DataIn) for HASH_DataIn
    stm32f4xx_hash_md5.o(i.HMAC_MD5) refers to stm32f4xx_hash.o(i.HASH_StartDigest) for HASH_StartDigest
    stm32f4xx_hash_md5.o(i.HMAC_MD5) refers to stm32f4xx_hash.o(i.HASH_GetFlagStatus) for HASH_GetFlagStatus
    stm32f4xx_hash_md5.o(i.HMAC_MD5) refers to stm32f4xx_hash.o(i.HASH_GetDigest) for HASH_GetDigest
    stm32f4xx_hash_sha1.o(i.HASH_SHA1) refers to stm32f4xx_hash.o(i.HASH_DeInit) for HASH_DeInit
    stm32f4xx_hash_sha1.o(i.HASH_SHA1) refers to stm32f4xx_hash.o(i.HASH_Init) for HASH_Init
    stm32f4xx_hash_sha1.o(i.HASH_SHA1) refers to stm32f4xx_hash.o(i.HASH_SetLastWordValidBitsNbr) for HASH_SetLastWordValidBitsNbr
    stm32f4xx_hash_sha1.o(i.HASH_SHA1) refers to stm32f4xx_hash.o(i.HASH_DataIn) for HASH_DataIn
    stm32f4xx_hash_sha1.o(i.HASH_SHA1) refers to stm32f4xx_hash.o(i.HASH_StartDigest) for HASH_StartDigest
    stm32f4xx_hash_sha1.o(i.HASH_SHA1) refers to stm32f4xx_hash.o(i.HASH_GetFlagStatus) for HASH_GetFlagStatus
    stm32f4xx_hash_sha1.o(i.HASH_SHA1) refers to stm32f4xx_hash.o(i.HASH_GetDigest) for HASH_GetDigest
    stm32f4xx_hash_sha1.o(i.HMAC_SHA1) refers to stm32f4xx_hash.o(i.HASH_DeInit) for HASH_DeInit
    stm32f4xx_hash_sha1.o(i.HMAC_SHA1) refers to stm32f4xx_hash.o(i.HASH_Init) for HASH_Init
    stm32f4xx_hash_sha1.o(i.HMAC_SHA1) refers to stm32f4xx_hash.o(i.HASH_SetLastWordValidBitsNbr) for HASH_SetLastWordValidBitsNbr
    stm32f4xx_hash_sha1.o(i.HMAC_SHA1) refers to stm32f4xx_hash.o(i.HASH_DataIn) for HASH_DataIn
    stm32f4xx_hash_sha1.o(i.HMAC_SHA1) refers to stm32f4xx_hash.o(i.HASH_StartDigest) for HASH_StartDigest
    stm32f4xx_hash_sha1.o(i.HMAC_SHA1) refers to stm32f4xx_hash.o(i.HASH_GetFlagStatus) for HASH_GetFlagStatus
    stm32f4xx_hash_sha1.o(i.HMAC_SHA1) refers to stm32f4xx_hash.o(i.HASH_GetDigest) for HASH_GetDigest
    stm32f4xx_i2c.o(i.I2C_DeInit) refers to stm32f4xx_rcc.o(i.RCC_APB1PeriphResetCmd) for RCC_APB1PeriphResetCmd
    stm32f4xx_i2c.o(i.I2C_Init) refers to stm32f4xx_rcc.o(i.RCC_GetClocksFreq) for RCC_GetClocksFreq
    stm32f4xx_ltdc.o(i.LTDC_DeInit) refers to stm32f4xx_rcc.o(i.RCC_APB2PeriphResetCmd) for RCC_APB2PeriphResetCmd
    stm32f4xx_pwr.o(i.PWR_DeInit) refers to stm32f4xx_rcc.o(i.RCC_APB1PeriphResetCmd) for RCC_APB1PeriphResetCmd
    stm32f4xx_rcc.o(i.RCC_GetClocksFreq) refers to stm32f4xx_rcc.o(.data) for .data
    stm32f4xx_rcc.o(i.RCC_WaitForHSEStartUp) refers to stm32f4xx_rcc.o(i.RCC_GetFlagStatus) for RCC_GetFlagStatus
    stm32f4xx_rng.o(i.RNG_DeInit) refers to stm32f4xx_rcc.o(i.RCC_AHB2PeriphResetCmd) for RCC_AHB2PeriphResetCmd
    stm32f4xx_rtc.o(i.RTC_CoarseCalibCmd) refers to stm32f4xx_rtc.o(i.RTC_EnterInitMode) for RTC_EnterInitMode
    stm32f4xx_rtc.o(i.RTC_CoarseCalibCmd) refers to stm32f4xx_rtc.o(i.RTC_ExitInitMode) for RTC_ExitInitMode
    stm32f4xx_rtc.o(i.RTC_CoarseCalibConfig) refers to stm32f4xx_rtc.o(i.RTC_EnterInitMode) for RTC_EnterInitMode
    stm32f4xx_rtc.o(i.RTC_CoarseCalibConfig) refers to stm32f4xx_rtc.o(i.RTC_ExitInitMode) for RTC_ExitInitMode
    stm32f4xx_rtc.o(i.RTC_DeInit) refers to stm32f4xx_rtc.o(i.RTC_EnterInitMode) for RTC_EnterInitMode
    stm32f4xx_rtc.o(i.RTC_DeInit) refers to stm32f4xx_rtc.o(i.RTC_WaitForSynchro) for RTC_WaitForSynchro
    stm32f4xx_rtc.o(i.RTC_GetAlarm) refers to stm32f4xx_rtc.o(i.RTC_Bcd2ToByte) for RTC_Bcd2ToByte
    stm32f4xx_rtc.o(i.RTC_GetDate) refers to stm32f4xx_rtc.o(i.RTC_Bcd2ToByte) for RTC_Bcd2ToByte
    stm32f4xx_rtc.o(i.RTC_GetTime) refers to stm32f4xx_rtc.o(i.RTC_Bcd2ToByte) for RTC_Bcd2ToByte
    stm32f4xx_rtc.o(i.RTC_GetTimeStamp) refers to stm32f4xx_rtc.o(i.RTC_Bcd2ToByte) for RTC_Bcd2ToByte
    stm32f4xx_rtc.o(i.RTC_Init) refers to stm32f4xx_rtc.o(i.RTC_EnterInitMode) for RTC_EnterInitMode
    stm32f4xx_rtc.o(i.RTC_Init) refers to stm32f4xx_rtc.o(i.RTC_ExitInitMode) for RTC_ExitInitMode
    stm32f4xx_rtc.o(i.RTC_RefClockCmd) refers to stm32f4xx_rtc.o(i.RTC_EnterInitMode) for RTC_EnterInitMode
    stm32f4xx_rtc.o(i.RTC_RefClockCmd) refers to stm32f4xx_rtc.o(i.RTC_ExitInitMode) for RTC_ExitInitMode
    stm32f4xx_rtc.o(i.RTC_SetAlarm) refers to stm32f4xx_rtc.o(i.RTC_Bcd2ToByte) for RTC_Bcd2ToByte
    stm32f4xx_rtc.o(i.RTC_SetAlarm) refers to stm32f4xx_rtc.o(i.RTC_ByteToBcd2) for RTC_ByteToBcd2
    stm32f4xx_rtc.o(i.RTC_SetDate) refers to stm32f4xx_rtc.o(i.RTC_Bcd2ToByte) for RTC_Bcd2ToByte
    stm32f4xx_rtc.o(i.RTC_SetDate) refers to stm32f4xx_rtc.o(i.RTC_EnterInitMode) for RTC_EnterInitMode
    stm32f4xx_rtc.o(i.RTC_SetDate) refers to stm32f4xx_rtc.o(i.RTC_ExitInitMode) for RTC_ExitInitMode
    stm32f4xx_rtc.o(i.RTC_SetDate) refers to stm32f4xx_rtc.o(i.RTC_WaitForSynchro) for RTC_WaitForSynchro
    stm32f4xx_rtc.o(i.RTC_SetDate) refers to stm32f4xx_rtc.o(i.RTC_ByteToBcd2) for RTC_ByteToBcd2
    stm32f4xx_rtc.o(i.RTC_SetTime) refers to stm32f4xx_rtc.o(i.RTC_Bcd2ToByte) for RTC_Bcd2ToByte
    stm32f4xx_rtc.o(i.RTC_SetTime) refers to stm32f4xx_rtc.o(i.RTC_ByteToBcd2) for RTC_ByteToBcd2
    stm32f4xx_rtc.o(i.RTC_SetTime) refers to stm32f4xx_rtc.o(i.RTC_EnterInitMode) for RTC_EnterInitMode
    stm32f4xx_rtc.o(i.RTC_SetTime) refers to stm32f4xx_rtc.o(i.RTC_ExitInitMode) for RTC_ExitInitMode
    stm32f4xx_rtc.o(i.RTC_SetTime) refers to stm32f4xx_rtc.o(i.RTC_WaitForSynchro) for RTC_WaitForSynchro
    stm32f4xx_rtc.o(i.RTC_SynchroShiftConfig) refers to stm32f4xx_rtc.o(i.RTC_WaitForSynchro) for RTC_WaitForSynchro
    stm32f4xx_sai.o(i.SAI_DeInit) refers to stm32f4xx_rcc.o(i.RCC_APB2PeriphResetCmd) for RCC_APB2PeriphResetCmd
    stm32f4xx_sdio.o(i.SDIO_DeInit) refers to stm32f4xx_rcc.o(i.RCC_APB2PeriphResetCmd) for RCC_APB2PeriphResetCmd
    stm32f4xx_spi.o(i.SPI_I2S_DeInit) refers to stm32f4xx_rcc.o(i.RCC_APB1PeriphResetCmd) for RCC_APB1PeriphResetCmd
    stm32f4xx_spi.o(i.SPI_I2S_DeInit) refers to stm32f4xx_rcc.o(i.RCC_APB2PeriphResetCmd) for RCC_APB2PeriphResetCmd
    stm32f4xx_syscfg.o(i.SYSCFG_DeInit) refers to stm32f4xx_rcc.o(i.RCC_APB2PeriphResetCmd) for RCC_APB2PeriphResetCmd
    stm32f4xx_tim.o(i.TIM_DeInit) refers to stm32f4xx_rcc.o(i.RCC_APB2PeriphResetCmd) for RCC_APB2PeriphResetCmd
    stm32f4xx_tim.o(i.TIM_DeInit) refers to stm32f4xx_rcc.o(i.RCC_APB1PeriphResetCmd) for RCC_APB1PeriphResetCmd
    stm32f4xx_tim.o(i.TIM_ETRClockMode1Config) refers to stm32f4xx_tim.o(i.TIM_ETRConfig) for TIM_ETRConfig
    stm32f4xx_tim.o(i.TIM_ETRClockMode2Config) refers to stm32f4xx_tim.o(i.TIM_ETRConfig) for TIM_ETRConfig
    stm32f4xx_tim.o(i.TIM_ICInit) refers to stm32f4xx_tim.o(i.TIM_SetIC4Prescaler) for TIM_SetIC4Prescaler
    stm32f4xx_tim.o(i.TIM_ICInit) refers to stm32f4xx_tim.o(i.TI1_Config) for TI1_Config
    stm32f4xx_tim.o(i.TIM_ICInit) refers to stm32f4xx_tim.o(i.TIM_SetIC1Prescaler) for TIM_SetIC1Prescaler
    stm32f4xx_tim.o(i.TIM_ICInit) refers to stm32f4xx_tim.o(i.TI2_Config) for TI2_Config
    stm32f4xx_tim.o(i.TIM_ICInit) refers to stm32f4xx_tim.o(i.TIM_SetIC2Prescaler) for TIM_SetIC2Prescaler
    stm32f4xx_tim.o(i.TIM_ICInit) refers to stm32f4xx_tim.o(i.TIM_SetIC3Prescaler) for TIM_SetIC3Prescaler
    stm32f4xx_tim.o(i.TIM_ITRxExternalClockConfig) refers to stm32f4xx_tim.o(i.TIM_SelectInputTrigger) for TIM_SelectInputTrigger
    stm32f4xx_tim.o(i.TIM_PWMIConfig) refers to stm32f4xx_tim.o(i.TI2_Config) for TI2_Config
    stm32f4xx_tim.o(i.TIM_PWMIConfig) refers to stm32f4xx_tim.o(i.TIM_SetIC2Prescaler) for TIM_SetIC2Prescaler
    stm32f4xx_tim.o(i.TIM_PWMIConfig) refers to stm32f4xx_tim.o(i.TI1_Config) for TI1_Config
    stm32f4xx_tim.o(i.TIM_PWMIConfig) refers to stm32f4xx_tim.o(i.TIM_SetIC1Prescaler) for TIM_SetIC1Prescaler
    stm32f4xx_tim.o(i.TIM_TIxExternalClockConfig) refers to stm32f4xx_tim.o(i.TI1_Config) for TI1_Config
    stm32f4xx_tim.o(i.TIM_TIxExternalClockConfig) refers to stm32f4xx_tim.o(i.TIM_SelectInputTrigger) for TIM_SelectInputTrigger
    stm32f4xx_tim.o(i.TIM_TIxExternalClockConfig) refers to stm32f4xx_tim.o(i.TI2_Config) for TI2_Config
    stm32f4xx_usart.o(i.USART_DeInit) refers to stm32f4xx_rcc.o(i.RCC_APB2PeriphResetCmd) for RCC_APB2PeriphResetCmd
    stm32f4xx_usart.o(i.USART_DeInit) refers to stm32f4xx_rcc.o(i.RCC_APB1PeriphResetCmd) for RCC_APB1PeriphResetCmd
    stm32f4xx_usart.o(i.USART_Init) refers to stm32f4xx_rcc.o(i.RCC_GetClocksFreq) for RCC_GetClocksFreq
    stm32f4xx_wwdg.o(i.WWDG_DeInit) refers to stm32f4xx_rcc.o(i.RCC_APB1PeriphResetCmd) for RCC_APB1PeriphResetCmd
    system_stm32f4xx.o(i.SystemCoreClockUpdate) refers to system_stm32f4xx.o(.data) for .data
    system_stm32f4xx.o(i.SystemInit) refers to system_stm32f4xx.o(i.SetSysClock) for SetSysClock
    startup_stm32f427xx.o(RESET) refers to startup_stm32f427xx.o(STACK) for __initial_sp
    startup_stm32f427xx.o(RESET) refers to startup_stm32f427xx.o(.text) for Reset_Handler
    startup_stm32f427xx.o(RESET) refers to stm32f4xx_it.o(i.NMI_Handler) for NMI_Handler
    startup_stm32f427xx.o(RESET) refers to stm32f4xx_it.o(i.HardFault_Handler) for HardFault_Handler
    startup_stm32f427xx.o(RESET) refers to stm32f4xx_it.o(i.MemManage_Handler) for MemManage_Handler
    startup_stm32f427xx.o(RESET) refers to stm32f4xx_it.o(i.BusFault_Handler) for BusFault_Handler
    startup_stm32f427xx.o(RESET) refers to stm32f4xx_it.o(i.UsageFault_Handler) for UsageFault_Handler
    startup_stm32f427xx.o(RESET) refers to stm32f4xx_it.o(i.SVC_Handler) for SVC_Handler
    startup_stm32f427xx.o(RESET) refers to stm32f4xx_it.o(i.DebugMon_Handler) for DebugMon_Handler
    startup_stm32f427xx.o(RESET) refers to stm32f4xx_it.o(i.PendSV_Handler) for PendSV_Handler
    startup_stm32f427xx.o(RESET) refers to can1.o(i.CAN1_TX_IRQHandler) for CAN1_TX_IRQHandler
    startup_stm32f427xx.o(RESET) refers to can1.o(i.CAN1_RX0_IRQHandler) for CAN1_RX0_IRQHandler
    startup_stm32f427xx.o(RESET) refers to tim.o(i.TIM2_IRQHandler) for TIM2_IRQHandler
    startup_stm32f427xx.o(RESET) refers to rcv.o(i.USART1_IRQHandler) for USART1_IRQHandler
    startup_stm32f427xx.o(RESET) refers to btm.o(i.USART2_IRQHandler) for USART2_IRQHandler
    startup_stm32f427xx.o(RESET) refers to dbi.o(i.USART3_IRQHandler) for USART3_IRQHandler
    startup_stm32f427xx.o(RESET) refers to tim.o(i.TIM6_DAC_IRQHandler) for TIM6_DAC_IRQHandler
    startup_stm32f427xx.o(RESET) refers to can2.o(i.CAN2_TX_IRQHandler) for CAN2_TX_IRQHandler
    startup_stm32f427xx.o(RESET) refers to can2.o(i.CAN2_RX0_IRQHandler) for CAN2_RX0_IRQHandler
    startup_stm32f427xx.o(RESET) refers to tty.o(i.USART6_IRQHandler) for USART6_IRQHandler
    startup_stm32f427xx.o(.text) refers to system_stm32f4xx.o(i.SystemInit) for SystemInit
    startup_stm32f427xx.o(.text) refers to entry.o(.ARM.Collect$$$$00000000) for __main
    asin.o(i.__hardfp_asin) refers (Special) to iusefp.o(.text) for __I$use$fp
    asin.o(i.__hardfp_asin) refers to dunder.o(i.__mathlib_dbl_infnan) for __mathlib_dbl_infnan
    asin.o(i.__hardfp_asin) refers to dmul.o(.text) for __aeabi_dmul
    asin.o(i.__hardfp_asin) refers to dadd.o(.text) for __aeabi_dadd
    asin.o(i.__hardfp_asin) refers to errno.o(i.__set_errno) for __set_errno
    asin.o(i.__hardfp_asin) refers to dunder.o(i.__mathlib_dbl_invalid) for __mathlib_dbl_invalid
    asin.o(i.__hardfp_asin) refers to fpclassify.o(i.__ARM_fpclassify) for __ARM_fpclassify
    asin.o(i.__hardfp_asin) refers to dunder.o(i.__mathlib_dbl_underflow) for __mathlib_dbl_underflow
    asin.o(i.__hardfp_asin) refers to poly.o(i.__kernel_poly) for __kernel_poly
    asin.o(i.__hardfp_asin) refers to ddiv.o(.text) for __aeabi_ddiv
    asin.o(i.__hardfp_asin) refers to fabs.o(i.fabs) for fabs
    asin.o(i.__hardfp_asin) refers to sqrt.o(i.sqrt) for sqrt
    asin.o(i.__hardfp_asin) refers to asin.o(.constdata) for .constdata
    asin.o(i.__softfp_asin) refers (Special) to iusefp.o(.text) for __I$use$fp
    asin.o(i.__softfp_asin) refers to asin.o(i.__hardfp_asin) for __hardfp_asin
    asin.o(i.asin) refers (Special) to iusefp.o(.text) for __I$use$fp
    asin.o(i.asin) refers to asin.o(i.__hardfp_asin) for __hardfp_asin
    asin.o(.constdata) refers (Special) to iusefp.o(.text) for __I$use$fp
    asin_x.o(i.____hardfp_asin$lsc) refers (Special) to iusefp.o(.text) for __I$use$fp
    asin_x.o(i.____hardfp_asin$lsc) refers to dunder.o(i.__mathlib_dbl_infnan) for __mathlib_dbl_infnan
    asin_x.o(i.____hardfp_asin$lsc) refers to dmul.o(.text) for __aeabi_dmul
    asin_x.o(i.____hardfp_asin$lsc) refers to dadd.o(.text) for __aeabi_dadd
    asin_x.o(i.____hardfp_asin$lsc) refers to errno.o(i.__set_errno) for __set_errno
    asin_x.o(i.____hardfp_asin$lsc) refers to poly.o(i.__kernel_poly) for __kernel_poly
    asin_x.o(i.____hardfp_asin$lsc) refers to ddiv.o(.text) for __aeabi_ddiv
    asin_x.o(i.____hardfp_asin$lsc) refers to fabs.o(i.fabs) for fabs
    asin_x.o(i.____hardfp_asin$lsc) refers to sqrt.o(i.sqrt) for sqrt
    asin_x.o(i.____hardfp_asin$lsc) refers to asin_x.o(.constdata) for .constdata
    asin_x.o(i.____softfp_asin$lsc) refers (Special) to iusefp.o(.text) for __I$use$fp
    asin_x.o(i.____softfp_asin$lsc) refers to asin_x.o(i.____hardfp_asin$lsc) for ____hardfp_asin$lsc
    asin_x.o(i.__asin$lsc) refers (Special) to iusefp.o(.text) for __I$use$fp
    asin_x.o(i.__asin$lsc) refers to asin_x.o(i.____hardfp_asin$lsc) for ____hardfp_asin$lsc
    asin_x.o(.constdata) refers (Special) to iusefp.o(.text) for __I$use$fp
    atan2.o(i.__hardfp_atan2) refers (Special) to iusefp.o(.text) for __I$use$fp
    atan2.o(i.__hardfp_atan2) refers to dunder.o(i.__mathlib_dbl_infnan2) for __mathlib_dbl_infnan2
    atan2.o(i.__hardfp_atan2) refers to atan.o(i.atan) for atan
    atan2.o(i.__hardfp_atan2) refers to ddiv.o(.text) for __aeabi_ddiv
    atan2.o(i.__hardfp_atan2) refers to fabs.o(i.fabs) for fabs
    atan2.o(i.__hardfp_atan2) refers to dadd.o(.text) for __aeabi_dsub
    atan2.o(i.__hardfp_atan2) refers to qnan.o(.constdata) for __mathlib_zero
    atan2.o(i.__softfp_atan2) refers (Special) to iusefp.o(.text) for __I$use$fp
    atan2.o(i.__softfp_atan2) refers to atan2.o(i.__hardfp_atan2) for __hardfp_atan2
    atan2.o(i.atan2) refers (Special) to iusefp.o(.text) for __I$use$fp
    atan2.o(i.atan2) refers to atan2.o(i.__hardfp_atan2) for __hardfp_atan2
    atan2_x.o(i.____hardfp_atan2$lsc) refers (Special) to iusefp.o(.text) for __I$use$fp
    atan2_x.o(i.____hardfp_atan2$lsc) refers to dunder.o(i.__mathlib_dbl_infnan2) for __mathlib_dbl_infnan2
    atan2_x.o(i.____hardfp_atan2$lsc) refers to atan.o(i.atan) for atan
    atan2_x.o(i.____hardfp_atan2$lsc) refers to errno.o(i.__set_errno) for __set_errno
    atan2_x.o(i.____hardfp_atan2$lsc) refers to ddiv.o(.text) for __aeabi_ddiv
    atan2_x.o(i.____hardfp_atan2$lsc) refers to fabs.o(i.fabs) for fabs
    atan2_x.o(i.____hardfp_atan2$lsc) refers to dadd.o(.text) for __aeabi_dsub
    atan2_x.o(i.____hardfp_atan2$lsc) refers to qnan.o(.constdata) for __mathlib_zero
    atan2_x.o(i.____softfp_atan2$lsc) refers (Special) to iusefp.o(.text) for __I$use$fp
    atan2_x.o(i.____softfp_atan2$lsc) refers to atan2_x.o(i.____hardfp_atan2$lsc) for ____hardfp_atan2$lsc
    atan2_x.o(i.__atan2$lsc) refers (Special) to iusefp.o(.text) for __I$use$fp
    atan2_x.o(i.__atan2$lsc) refers to atan2_x.o(i.____hardfp_atan2$lsc) for ____hardfp_atan2$lsc
    sqrt.o(i.__hardfp_sqrt) refers (Special) to iusefp.o(.text) for __I$use$fp
    sqrt.o(i.__hardfp_sqrt) refers to dsqrt.o(.text) for _dsqrt
    sqrt.o(i.__hardfp_sqrt) refers to errno.o(i.__set_errno) for __set_errno
    sqrt.o(i.__softfp_sqrt) refers (Special) to iusefp.o(.text) for __I$use$fp
    sqrt.o(i.__softfp_sqrt) refers to dsqrt.o(.text) for _dsqrt
    sqrt.o(i.__softfp_sqrt) refers to errno.o(i.__set_errno) for __set_errno
    sqrt.o(i.sqrt) refers (Special) to iusefp.o(.text) for __I$use$fp
    sqrt.o(i.sqrt) refers to dsqrt.o(.text) for _dsqrt
    sqrt.o(i.sqrt) refers to errno.o(i.__set_errno) for __set_errno
    sqrt_x.o(i.____hardfp_sqrt$lsc) refers (Special) to iusefp.o(.text) for __I$use$fp
    sqrt_x.o(i.____hardfp_sqrt$lsc) refers to cdcmple.o(.text) for __aeabi_cdcmple
    sqrt_x.o(i.____hardfp_sqrt$lsc) refers to errno.o(i.__set_errno) for __set_errno
    sqrt_x.o(i.____hardfp_sqrt$lsc) refers to dsqrt.o(.text) for _dsqrt
    sqrt_x.o(i.____softfp_sqrt$lsc) refers (Special) to iusefp.o(.text) for __I$use$fp
    sqrt_x.o(i.____softfp_sqrt$lsc) refers to cdcmple.o(.text) for __aeabi_cdcmple
    sqrt_x.o(i.____softfp_sqrt$lsc) refers to errno.o(i.__set_errno) for __set_errno
    sqrt_x.o(i.____softfp_sqrt$lsc) refers to dsqrt.o(.text) for _dsqrt
    sqrt_x.o(i.__sqrt$lsc) refers (Special) to iusefp.o(.text) for __I$use$fp
    sqrt_x.o(i.__sqrt$lsc) refers to cdcmple.o(.text) for __aeabi_cdcmple
    sqrt_x.o(i.__sqrt$lsc) refers to errno.o(i.__set_errno) for __set_errno
    sqrt_x.o(i.__sqrt$lsc) refers to dsqrt.o(.text) for _dsqrt
    entry.o(.ARM.Collect$$$$00000000) refers (Special) to entry10a.o(.ARM.Collect$$$$0000000D) for __rt_final_cpp
    entry.o(.ARM.Collect$$$$00000000) refers (Special) to entry11a.o(.ARM.Collect$$$$0000000F) for __rt_final_exit
    entry.o(.ARM.Collect$$$$00000000) refers (Special) to entry7b.o(.ARM.Collect$$$$00000008) for _main_clock
    entry.o(.ARM.Collect$$$$00000000) refers (Special) to entry8b.o(.ARM.Collect$$$$0000000A) for _main_cpp_init
    entry.o(.ARM.Collect$$$$00000000) refers (Special) to entry9a.o(.ARM.Collect$$$$0000000B) for _main_init
    entry.o(.ARM.Collect$$$$00000000) refers (Special) to entry5.o(.ARM.Collect$$$$00000004) for _main_scatterload
    entry.o(.ARM.Collect$$$$00000000) refers (Special) to entry2.o(.ARM.Collect$$$$00000001) for _main_stk
    printfb.o(i.__0fprintf$bare) refers to printfb.o(i._printf_core) for _printf_core
    printfb.o(i.__0fprintf$bare) refers to ios.o(i.fputc) for fputc
    printfb.o(i.__0printf$bare) refers to printfb.o(i._printf_core) for _printf_core
    printfb.o(i.__0printf$bare) refers to ios.o(i.fputc) for fputc
    printfb.o(i.__0printf$bare) refers to stdout.o(.data) for __stdout
    printfb.o(i.__0snprintf$bare) refers to printfb.o(i._printf_core) for _printf_core
    printfb.o(i.__0snprintf$bare) refers to printfb.o(i._snputc) for _snputc
    printfb.o(i.__0sprintf$bare) refers to printfb.o(i._printf_core) for _printf_core
    printfb.o(i.__0sprintf$bare) refers to printfb.o(i._sputc) for _sputc
    printfb.o(i.__0vfprintf$bare) refers to printfb.o(i._printf_core) for _printf_core
    printfb.o(i.__0vfprintf$bare) refers to ios.o(i.fputc) for fputc
    printfb.o(i.__0vprintf$bare) refers to printfb.o(i._printf_core) for _printf_core
    printfb.o(i.__0vprintf$bare) refers to ios.o(i.fputc) for fputc
    printfb.o(i.__0vprintf$bare) refers to stdout.o(.data) for __stdout
    printfb.o(i.__0vsnprintf$bare) refers to printfb.o(i._printf_core) for _printf_core
    printfb.o(i.__0vsnprintf$bare) refers to printfb.o(i._snputc) for _snputc
    printfb.o(i.__0vsprintf$bare) refers to printfb.o(i._printf_core) for _printf_core
    printfb.o(i.__0vsprintf$bare) refers to printfb.o(i._sputc) for _sputc
    printf0.o(i.__0fprintf$0) refers to printf0.o(i._printf_core) for _printf_core
    printf0.o(i.__0fprintf$0) refers to ios.o(i.fputc) for fputc
    printf0.o(i.__0printf$0) refers to printf0.o(i._printf_core) for _printf_core
    printf0.o(i.__0printf$0) refers to ios.o(i.fputc) for fputc
    printf0.o(i.__0printf$0) refers to stdout.o(.data) for __stdout
    printf0.o(i.__0snprintf$0) refers to printf0.o(i._printf_core) for _printf_core
    printf0.o(i.__0snprintf$0) refers to printf0.o(i._snputc) for _snputc
    printf0.o(i.__0sprintf$0) refers to printf0.o(i._printf_core) for _printf_core
    printf0.o(i.__0sprintf$0) refers to printf0.o(i._sputc) for _sputc
    printf0.o(i.__0vfprintf$0) refers to printf0.o(i._printf_core) for _printf_core
    printf0.o(i.__0vfprintf$0) refers to ios.o(i.fputc) for fputc
    printf0.o(i.__0vprintf$0) refers to printf0.o(i._printf_core) for _printf_core
    printf0.o(i.__0vprintf$0) refers to ios.o(i.fputc) for fputc
    printf0.o(i.__0vprintf$0) refers to stdout.o(.data) for __stdout
    printf0.o(i.__0vsnprintf$0) refers to printf0.o(i._printf_core) for _printf_core
    printf0.o(i.__0vsnprintf$0) refers to printf0.o(i._snputc) for _snputc
    printf0.o(i.__0vsprintf$0) refers to printf0.o(i._printf_core) for _printf_core
    printf0.o(i.__0vsprintf$0) refers to printf0.o(i._sputc) for _sputc
    printf1.o(i.__0fprintf$1) refers to printf1.o(i._printf_core) for _printf_core
    printf1.o(i.__0fprintf$1) refers to ios.o(i.fputc) for fputc
    printf1.o(i.__0printf$1) refers to printf1.o(i._printf_core) for _printf_core
    printf1.o(i.__0printf$1) refers to ios.o(i.fputc) for fputc
    printf1.o(i.__0printf$1) refers to stdout.o(.data) for __stdout
    printf1.o(i.__0snprintf$1) refers to printf1.o(i._printf_core) for _printf_core
    printf1.o(i.__0snprintf$1) refers to printf1.o(i._snputc) for _snputc
    printf1.o(i.__0sprintf$1) refers to printf1.o(i._printf_core) for _printf_core
    printf1.o(i.__0sprintf$1) refers to printf1.o(i._sputc) for _sputc
    printf1.o(i.__0vfprintf$1) refers to printf1.o(i._printf_core) for _printf_core
    printf1.o(i.__0vfprintf$1) refers to ios.o(i.fputc) for fputc
    printf1.o(i.__0vprintf$1) refers to printf1.o(i._printf_core) for _printf_core
    printf1.o(i.__0vprintf$1) refers to ios.o(i.fputc) for fputc
    printf1.o(i.__0vprintf$1) refers to stdout.o(.data) for __stdout
    printf1.o(i.__0vsnprintf$1) refers to printf1.o(i._printf_core) for _printf_core
    printf1.o(i.__0vsnprintf$1) refers to printf1.o(i._snputc) for _snputc
    printf1.o(i.__0vsprintf$1) refers to printf1.o(i._printf_core) for _printf_core
    printf1.o(i.__0vsprintf$1) refers to printf1.o(i._sputc) for _sputc
    printf1.o(i._printf_core) refers to uidiv.o(.text) for __aeabi_uidivmod
    printf2.o(i.__0fprintf$2) refers to printf2.o(i._printf_core) for _printf_core
    printf2.o(i.__0fprintf$2) refers to ios.o(i.fputc) for fputc
    printf2.o(i.__0printf$2) refers to printf2.o(i._printf_core) for _printf_core
    printf2.o(i.__0printf$2) refers to ios.o(i.fputc) for fputc
    printf2.o(i.__0printf$2) refers to stdout.o(.data) for __stdout
    printf2.o(i.__0snprintf$2) refers to printf2.o(i._printf_core) for _printf_core
    printf2.o(i.__0snprintf$2) refers to printf2.o(i._snputc) for _snputc
    printf2.o(i.__0sprintf$2) refers to printf2.o(i._printf_core) for _printf_core
    printf2.o(i.__0sprintf$2) refers to printf2.o(i._sputc) for _sputc
    printf2.o(i.__0vfprintf$2) refers to printf2.o(i._printf_core) for _printf_core
    printf2.o(i.__0vfprintf$2) refers to ios.o(i.fputc) for fputc
    printf2.o(i.__0vprintf$2) refers to printf2.o(i._printf_core) for _printf_core
    printf2.o(i.__0vprintf$2) refers to ios.o(i.fputc) for fputc
    printf2.o(i.__0vprintf$2) refers to stdout.o(.data) for __stdout
    printf2.o(i.__0vsnprintf$2) refers to printf2.o(i._printf_core) for _printf_core
    printf2.o(i.__0vsnprintf$2) refers to printf2.o(i._snputc) for _snputc
    printf2.o(i.__0vsprintf$2) refers to printf2.o(i._printf_core) for _printf_core
    printf2.o(i.__0vsprintf$2) refers to printf2.o(i._sputc) for _sputc
    printf3.o(i.__0fprintf$3) refers to printf3.o(i._printf_core) for _printf_core
    printf3.o(i.__0fprintf$3) refers to ios.o(i.fputc) for fputc
    printf3.o(i.__0printf$3) refers to printf3.o(i._printf_core) for _printf_core
    printf3.o(i.__0printf$3) refers to ios.o(i.fputc) for fputc
    printf3.o(i.__0printf$3) refers to stdout.o(.data) for __stdout
    printf3.o(i.__0snprintf$3) refers to printf3.o(i._printf_core) for _printf_core
    printf3.o(i.__0snprintf$3) refers to printf3.o(i._snputc) for _snputc
    printf3.o(i.__0sprintf$3) refers to printf3.o(i._printf_core) for _printf_core
    printf3.o(i.__0sprintf$3) refers to printf3.o(i._sputc) for _sputc
    printf3.o(i.__0vfprintf$3) refers to printf3.o(i._printf_core) for _printf_core
    printf3.o(i.__0vfprintf$3) refers to ios.o(i.fputc) for fputc
    printf3.o(i.__0vprintf$3) refers to printf3.o(i._printf_core) for _printf_core
    printf3.o(i.__0vprintf$3) refers to ios.o(i.fputc) for fputc
    printf3.o(i.__0vprintf$3) refers to stdout.o(.data) for __stdout
    printf3.o(i.__0vsnprintf$3) refers to printf3.o(i._printf_core) for _printf_core
    printf3.o(i.__0vsnprintf$3) refers to printf3.o(i._snputc) for _snputc
    printf3.o(i.__0vsprintf$3) refers to printf3.o(i._printf_core) for _printf_core
    printf3.o(i.__0vsprintf$3) refers to printf3.o(i._sputc) for _sputc
    printf3.o(i._printf_core) refers to uidiv.o(.text) for __aeabi_uidivmod
    printf4.o(i.__0fprintf$4) refers to printf4.o(i._printf_core) for _printf_core
    printf4.o(i.__0fprintf$4) refers to ios.o(i.fputc) for fputc
    printf4.o(i.__0printf$4) refers to printf4.o(i._printf_core) for _printf_core
    printf4.o(i.__0printf$4) refers to ios.o(i.fputc) for fputc
    printf4.o(i.__0printf$4) refers to stdout.o(.data) for __stdout
    printf4.o(i.__0snprintf$4) refers to printf4.o(i._printf_core) for _printf_core
    printf4.o(i.__0snprintf$4) refers to printf4.o(i._snputc) for _snputc
    printf4.o(i.__0sprintf$4) refers to printf4.o(i._printf_core) for _printf_core
    printf4.o(i.__0sprintf$4) refers to printf4.o(i._sputc) for _sputc
    printf4.o(i.__0vfprintf$4) refers to printf4.o(i._printf_core) for _printf_core
    printf4.o(i.__0vfprintf$4) refers to ios.o(i.fputc) for fputc
    printf4.o(i.__0vprintf$4) refers to printf4.o(i._printf_core) for _printf_core
    printf4.o(i.__0vprintf$4) refers to ios.o(i.fputc) for fputc
    printf4.o(i.__0vprintf$4) refers to stdout.o(.data) for __stdout
    printf4.o(i.__0vsnprintf$4) refers to printf4.o(i._printf_core) for _printf_core
    printf4.o(i.__0vsnprintf$4) refers to printf4.o(i._snputc) for _snputc
    printf4.o(i.__0vsprintf$4) refers to printf4.o(i._printf_core) for _printf_core
    printf4.o(i.__0vsprintf$4) refers to printf4.o(i._sputc) for _sputc
    printf4.o(i._printf_core) refers to uldiv.o(.text) for __aeabi_uldivmod
    printf5.o(i.__0fprintf$5) refers to printf5.o(i._printf_core) for _printf_core
    printf5.o(i.__0fprintf$5) refers to ios.o(i.fputc) for fputc
    printf5.o(i.__0printf$5) refers to printf5.o(i._printf_core) for _printf_core
    printf5.o(i.__0printf$5) refers to ios.o(i.fputc) for fputc
    printf5.o(i.__0printf$5) refers to stdout.o(.data) for __stdout
    printf5.o(i.__0snprintf$5) refers to printf5.o(i._printf_core) for _printf_core
    printf5.o(i.__0snprintf$5) refers to printf5.o(i._snputc) for _snputc
    printf5.o(i.__0sprintf$5) refers to printf5.o(i._printf_core) for _printf_core
    printf5.o(i.__0sprintf$5) refers to printf5.o(i._sputc) for _sputc
    printf5.o(i.__0vfprintf$5) refers to printf5.o(i._printf_core) for _printf_core
    printf5.o(i.__0vfprintf$5) refers to ios.o(i.fputc) for fputc
    printf5.o(i.__0vprintf$5) refers to printf5.o(i._printf_core) for _printf_core
    printf5.o(i.__0vprintf$5) refers to ios.o(i.fputc) for fputc
    printf5.o(i.__0vprintf$5) refers to stdout.o(.data) for __stdout
    printf5.o(i.__0vsnprintf$5) refers to printf5.o(i._printf_core) for _printf_core
    printf5.o(i.__0vsnprintf$5) refers to printf5.o(i._snputc) for _snputc
    printf5.o(i.__0vsprintf$5) refers to printf5.o(i._printf_core) for _printf_core
    printf5.o(i.__0vsprintf$5) refers to printf5.o(i._sputc) for _sputc
    printf5.o(i._printf_core) refers to uldiv.o(.text) for __aeabi_uldivmod
    printf6.o(i.__0fprintf$6) refers to printf6.o(i._printf_core) for _printf_core
    printf6.o(i.__0fprintf$6) refers to ios.o(i.fputc) for fputc
    printf6.o(i.__0printf$6) refers to printf6.o(i._printf_core) for _printf_core
    printf6.o(i.__0printf$6) refers to ios.o(i.fputc) for fputc
    printf6.o(i.__0printf$6) refers to stdout.o(.data) for __stdout
    printf6.o(i.__0snprintf$6) refers to printf6.o(i._printf_core) for _printf_core
    printf6.o(i.__0snprintf$6) refers to printf6.o(i._snputc) for _snputc
    printf6.o(i.__0sprintf$6) refers to printf6.o(i._printf_core) for _printf_core
    printf6.o(i.__0sprintf$6) refers to printf6.o(i._sputc) for _sputc
    printf6.o(i.__0vfprintf$6) refers to printf6.o(i._printf_core) for _printf_core
    printf6.o(i.__0vfprintf$6) refers to ios.o(i.fputc) for fputc
    printf6.o(i.__0vprintf$6) refers to printf6.o(i._printf_core) for _printf_core
    printf6.o(i.__0vprintf$6) refers to ios.o(i.fputc) for fputc
    printf6.o(i.__0vprintf$6) refers to stdout.o(.data) for __stdout
    printf6.o(i.__0vsnprintf$6) refers to printf6.o(i._printf_core) for _printf_core
    printf6.o(i.__0vsnprintf$6) refers to printf6.o(i._snputc) for _snputc
    printf6.o(i.__0vsprintf$6) refers to printf6.o(i._printf_core) for _printf_core
    printf6.o(i.__0vsprintf$6) refers to printf6.o(i._sputc) for _sputc
    printf6.o(i._printf_core) refers to printf6.o(i._printf_pre_padding) for _printf_pre_padding
    printf6.o(i._printf_core) refers to uidiv.o(.text) for __aeabi_uidivmod
    printf6.o(i._printf_core) refers to printf6.o(i._printf_post_padding) for _printf_post_padding
    printf7.o(i.__0fprintf$7) refers to printf7.o(i._printf_core) for _printf_core
    printf7.o(i.__0fprintf$7) refers to ios.o(i.fputc) for fputc
    printf7.o(i.__0printf$7) refers to printf7.o(i._printf_core) for _printf_core
    printf7.o(i.__0printf$7) refers to ios.o(i.fputc) for fputc
    printf7.o(i.__0printf$7) refers to stdout.o(.data) for __stdout
    printf7.o(i.__0snprintf$7) refers to printf7.o(i._printf_core) for _printf_core
    printf7.o(i.__0snprintf$7) refers to printf7.o(i._snputc) for _snputc
    printf7.o(i.__0sprintf$7) refers to printf7.o(i._printf_core) for _printf_core
    printf7.o(i.__0sprintf$7) refers to printf7.o(i._sputc) for _sputc
    printf7.o(i.__0vfprintf$7) refers to printf7.o(i._printf_core) for _printf_core
    printf7.o(i.__0vfprintf$7) refers to ios.o(i.fputc) for fputc
    printf7.o(i.__0vprintf$7) refers to printf7.o(i._printf_core) for _printf_core
    printf7.o(i.__0vprintf$7) refers to ios.o(i.fputc) for fputc
    printf7.o(i.__0vprintf$7) refers to stdout.o(.data) for __stdout
    printf7.o(i.__0vsnprintf$7) refers to printf7.o(i._printf_core) for _printf_core
    printf7.o(i.__0vsnprintf$7) refers to printf7.o(i._snputc) for _snputc
    printf7.o(i.__0vsprintf$7) refers to printf7.o(i._printf_core) for _printf_core
    printf7.o(i.__0vsprintf$7) refers to printf7.o(i._sputc) for _sputc
    printf7.o(i._printf_core) refers to printf7.o(i._printf_pre_padding) for _printf_pre_padding
    printf7.o(i._printf_core) refers to uldiv.o(.text) for __aeabi_uldivmod
    printf7.o(i._printf_core) refers to printf7.o(i._printf_post_padding) for _printf_post_padding
    printf8.o(i.__0fprintf$8) refers to printf8.o(i._printf_core) for _printf_core
    printf8.o(i.__0fprintf$8) refers to ios.o(i.fputc) for fputc
    printf8.o(i.__0printf$8) refers to printf8.o(i._printf_core) for _printf_core
    printf8.o(i.__0printf$8) refers to ios.o(i.fputc) for fputc
    printf8.o(i.__0printf$8) refers to stdout.o(.data) for __stdout
    printf8.o(i.__0snprintf$8) refers to printf8.o(i._printf_core) for _printf_core
    printf8.o(i.__0snprintf$8) refers to printf8.o(i._snputc) for _snputc
    printf8.o(i.__0sprintf$8) refers to printf8.o(i._printf_core) for _printf_core
    printf8.o(i.__0sprintf$8) refers to printf8.o(i._sputc) for _sputc
    printf8.o(i.__0vfprintf$8) refers to printf8.o(i._printf_core) for _printf_core
    printf8.o(i.__0vfprintf$8) refers to ios.o(i.fputc) for fputc
    printf8.o(i.__0vprintf$8) refers to printf8.o(i._printf_core) for _printf_core
    printf8.o(i.__0vprintf$8) refers to ios.o(i.fputc) for fputc
    printf8.o(i.__0vprintf$8) refers to stdout.o(.data) for __stdout
    printf8.o(i.__0vsnprintf$8) refers to printf8.o(i._printf_core) for _printf_core
    printf8.o(i.__0vsnprintf$8) refers to printf8.o(i._snputc) for _snputc
    printf8.o(i.__0vsprintf$8) refers to printf8.o(i._printf_core) for _printf_core
    printf8.o(i.__0vsprintf$8) refers to printf8.o(i._sputc) for _sputc
    printf8.o(i._printf_core) refers to printf8.o(i._printf_pre_padding) for _printf_pre_padding
    printf8.o(i._printf_core) refers to uldiv.o(.text) for __aeabi_uldivmod
    printf8.o(i._printf_core) refers to printf8.o(i._printf_post_padding) for _printf_post_padding
    printfa.o(i.__0fprintf) refers (Special) to iusefp.o(.text) for __I$use$fp
    printfa.o(i.__0fprintf) refers to printfa.o(i._printf_core) for _printf_core
    printfa.o(i.__0fprintf) refers to ios.o(i.fputc) for fputc
    printfa.o(i.__0printf) refers (Special) to iusefp.o(.text) for __I$use$fp
    printfa.o(i.__0printf) refers to printfa.o(i._printf_core) for _printf_core
    printfa.o(i.__0printf) refers to ios.o(i.fputc) for fputc
    printfa.o(i.__0printf) refers to stdout.o(.data) for __stdout
    printfa.o(i.__0snprintf) refers (Special) to iusefp.o(.text) for __I$use$fp
    printfa.o(i.__0snprintf) refers to printfa.o(i._printf_core) for _printf_core
    printfa.o(i.__0snprintf) refers to printfa.o(i._snputc) for _snputc
    printfa.o(i.__0sprintf) refers (Special) to iusefp.o(.text) for __I$use$fp
    printfa.o(i.__0sprintf) refers to printfa.o(i._printf_core) for _printf_core
    printfa.o(i.__0sprintf) refers to printfa.o(i._sputc) for _sputc
    printfa.o(i.__0vfprintf) refers (Special) to iusefp.o(.text) for __I$use$fp
    printfa.o(i.__0vfprintf) refers to printfa.o(i._printf_core) for _printf_core
    printfa.o(i.__0vfprintf) refers to ios.o(i.fputc) for fputc
    printfa.o(i.__0vprintf) refers (Special) to iusefp.o(.text) for __I$use$fp
    printfa.o(i.__0vprintf) refers to printfa.o(i._printf_core) for _printf_core
    printfa.o(i.__0vprintf) refers to ios.o(i.fputc) for fputc
    printfa.o(i.__0vprintf) refers to stdout.o(.data) for __stdout
    printfa.o(i.__0vsnprintf) refers (Special) to iusefp.o(.text) for __I$use$fp
    printfa.o(i.__0vsnprintf) refers to printfa.o(i._printf_core) for _printf_core
    printfa.o(i.__0vsnprintf) refers to printfa.o(i._snputc) for _snputc
    printfa.o(i.__0vsprintf) refers (Special) to iusefp.o(.text) for __I$use$fp
    printfa.o(i.__0vsprintf) refers to printfa.o(i._printf_core) for _printf_core
    printfa.o(i.__0vsprintf) refers to printfa.o(i._sputc) for _sputc
    printfa.o(i._fp_digits) refers (Special) to iusefp.o(.text) for __I$use$fp
    printfa.o(i._fp_digits) refers to dmul.o(.text) for __aeabi_dmul
    printfa.o(i._fp_digits) refers to ddiv.o(.text) for __aeabi_ddiv
    printfa.o(i._fp_digits) refers to cdrcmple.o(.text) for __aeabi_cdrcmple
    printfa.o(i._fp_digits) refers to dadd.o(.text) for __aeabi_dadd
    printfa.o(i._fp_digits) refers to dfixul.o(.text) for __aeabi_d2ulz
    printfa.o(i._fp_digits) refers to uldiv.o(.text) for __aeabi_uldivmod
    printfa.o(i._printf_core) refers (Special) to iusefp.o(.text) for __I$use$fp
    printfa.o(i._printf_core) refers to printfa.o(i._printf_pre_padding) for _printf_pre_padding
    printfa.o(i._printf_core) refers to uldiv.o(.text) for __aeabi_uldivmod
    printfa.o(i._printf_core) refers to printfa.o(i._printf_post_padding) for _printf_post_padding
    printfa.o(i._printf_core) refers to printfa.o(i._fp_digits) for _fp_digits
    printfa.o(i._printf_core) refers to uidiv.o(.text) for __aeabi_uidivmod
    printfa.o(i._printf_post_padding) refers (Special) to iusefp.o(.text) for __I$use$fp
    printfa.o(i._printf_pre_padding) refers (Special) to iusefp.o(.text) for __I$use$fp
    printfa.o(i._snputc) refers (Special) to iusefp.o(.text) for __I$use$fp
    printfa.o(i._sputc) refers (Special) to iusefp.o(.text) for __I$use$fp
    malloc.o(i.free) refers to mvars.o(.data) for __microlib_freelist
    malloc.o(i.malloc) refers to mvars.o(.data) for __microlib_freelist_initialised
    malloc.o(i.malloc) refers to mvars.o(.data) for __microlib_freelist
    malloc.o(i.malloc) refers to startup_stm32f427xx.o(HEAP) for __heap_base
    mallocr.o(i.__free$realloc) refers to mvars.o(.data) for __microlib_freelist
    mallocr.o(i.__malloc$realloc) refers to mallocr.o(i.internal_alloc) for internal_alloc
    mallocr.o(i.__malloc$realloc) refers to mvars.o(.data) for __microlib_freelist_initialised
    mallocr.o(i.__malloc$realloc) refers to startup_stm32f427xx.o(HEAP) for __heap_base
    mallocr.o(i.__malloc$realloc) refers to mvars.o(.data) for __microlib_freelist
    mallocr.o(i.internal_alloc) refers to memcpya.o(.text) for __aeabi_memcpy
    mallocr.o(i.internal_alloc) refers to mvars.o(.data) for __microlib_freelist
    mallocr.o(i.realloc) refers to mallocr.o(i.__free$realloc) for __free$realloc
    mallocr.o(i.realloc) refers to mallocr.o(i.internal_alloc) for internal_alloc
    mallocr.o(i.realloc) refers to mallocr.o(i.__malloc$realloc) for __malloc$realloc
    mallocr.o(i.realloc) refers to mvars.o(.data) for __microlib_freelist
    malloca.o(i.__aligned_malloc) refers to mvars.o(.data) for __microlib_freelist_initialised
    malloca.o(i.__aligned_malloc) refers to mvars.o(.data) for __microlib_freelist
    malloca.o(i.__aligned_malloc) refers to startup_stm32f427xx.o(HEAP) for __heap_base
    malloca.o(i.__free$memalign) refers to mvars.o(.data) for __microlib_freelist
    malloca.o(i.__malloc$memalign) refers to malloca.o(i.__aligned_malloc) for __aligned_malloc
    mallocra.o(i.__aligned_malloc$realloc) refers to mallocra.o(i.internal_alloc) for internal_alloc
    mallocra.o(i.__aligned_malloc$realloc) refers to mvars.o(.data) for __microlib_freelist_initialised
    mallocra.o(i.__aligned_malloc$realloc) refers to startup_stm32f427xx.o(HEAP) for __heap_base
    mallocra.o(i.__aligned_malloc$realloc) refers to mvars.o(.data) for __microlib_freelist
    mallocra.o(i.__free$realloc$memalign) refers to mvars.o(.data) for __microlib_freelist
    mallocra.o(i.__malloc$realloc$memalign) refers to mallocra.o(i.__aligned_malloc$realloc) for __aligned_malloc$realloc
    mallocra.o(i.__realloc$memalign) refers to mallocra.o(i.__free$realloc$memalign) for __free$realloc$memalign
    mallocra.o(i.__realloc$memalign) refers to mallocra.o(i.internal_alloc) for internal_alloc
    mallocra.o(i.__realloc$memalign) refers to mallocra.o(i.__malloc$realloc$memalign) for __malloc$realloc$memalign
    mallocra.o(i.__realloc$memalign) refers to mvars.o(.data) for __microlib_freelist
    mallocra.o(i.internal_alloc) refers to memcpya.o(.text) for __aeabi_memcpy
    mallocra.o(i.internal_alloc) refers to mvars.o(.data) for __microlib_freelist
    dmul.o(.text) refers (Special) to iusefp.o(.text) for __I$use$fp
    dmul.o(.text) refers to depilogue.o(.text) for _double_epilogue
    ddiv.o(.text) refers (Special) to iusefp.o(.text) for __I$use$fp
    ddiv.o(.text) refers to depilogue.o(.text) for _double_round
    f2d.o(.text) refers (Special) to iusefp.o(.text) for __I$use$fp
    d2f.o(.text) refers (Special) to iusefp.o(.text) for __I$use$fp
    d2f.o(.text) refers to fepilogue.o(.text) for _float_round
    atan.o(i.__hardfp_atan) refers (Special) to iusefp.o(.text) for __I$use$fp
    atan.o(i.__hardfp_atan) refers to dunder.o(i.__mathlib_dbl_infnan) for __mathlib_dbl_infnan
    atan.o(i.__hardfp_atan) refers to fpclassify.o(i.__ARM_fpclassify) for __ARM_fpclassify
    atan.o(i.__hardfp_atan) refers to dunder.o(i.__mathlib_dbl_underflow) for __mathlib_dbl_underflow
    atan.o(i.__hardfp_atan) refers to fabs.o(i.fabs) for fabs
    atan.o(i.__hardfp_atan) refers to dadd.o(.text) for __aeabi_dadd
    atan.o(i.__hardfp_atan) refers to dmul.o(.text) for __aeabi_dmul
    atan.o(i.__hardfp_atan) refers to ddiv.o(.text) for __aeabi_ddiv
    atan.o(i.__hardfp_atan) refers to poly.o(i.__kernel_poly) for __kernel_poly
    atan.o(i.__hardfp_atan) refers to atan.o(.constdata) for .constdata
    atan.o(i.__softfp_atan) refers (Special) to iusefp.o(.text) for __I$use$fp
    atan.o(i.__softfp_atan) refers to atan.o(i.__hardfp_atan) for __hardfp_atan
    atan.o(i.atan) refers (Special) to iusefp.o(.text) for __I$use$fp
    atan.o(i.atan) refers to atan.o(i.__hardfp_atan) for __hardfp_atan
    atan.o(.constdata) refers (Special) to iusefp.o(.text) for __I$use$fp
    atan_x.o(i.____hardfp_atan$lsc) refers (Special) to iusefp.o(.text) for __I$use$fp
    atan_x.o(i.____hardfp_atan$lsc) refers to dunder.o(i.__mathlib_dbl_infnan) for __mathlib_dbl_infnan
    atan_x.o(i.____hardfp_atan$lsc) refers to fabs.o(i.fabs) for fabs
    atan_x.o(i.____hardfp_atan$lsc) refers to dadd.o(.text) for __aeabi_dadd
    atan_x.o(i.____hardfp_atan$lsc) refers to dmul.o(.text) for __aeabi_dmul
    atan_x.o(i.____hardfp_atan$lsc) refers to ddiv.o(.text) for __aeabi_ddiv
    atan_x.o(i.____hardfp_atan$lsc) refers to poly.o(i.__kernel_poly) for __kernel_poly
    atan_x.o(i.____hardfp_atan$lsc) refers to atan_x.o(.constdata) for .constdata
    atan_x.o(i.____softfp_atan$lsc) refers (Special) to iusefp.o(.text) for __I$use$fp
    atan_x.o(i.____softfp_atan$lsc) refers to atan_x.o(i.____hardfp_atan$lsc) for ____hardfp_atan$lsc
    atan_x.o(i.__atan$lsc) refers (Special) to iusefp.o(.text) for __I$use$fp
    atan_x.o(i.__atan$lsc) refers to atan_x.o(i.____hardfp_atan$lsc) for ____hardfp_atan$lsc
    atan_x.o(.constdata) refers (Special) to iusefp.o(.text) for __I$use$fp
    dunder.o(i.__mathlib_dbl_divzero) refers to ddiv.o(.text) for __aeabi_ddiv
    dunder.o(i.__mathlib_dbl_infnan) refers to dadd.o(.text) for __aeabi_dadd
    dunder.o(i.__mathlib_dbl_infnan2) refers to dadd.o(.text) for __aeabi_dadd
    dunder.o(i.__mathlib_dbl_invalid) refers to ddiv.o(.text) for __aeabi_ddiv
    dunder.o(i.__mathlib_dbl_overflow) refers to dmul.o(.text) for __aeabi_dmul
    dunder.o(i.__mathlib_dbl_posinfnan) refers to dmul.o(.text) for __aeabi_dmul
    dunder.o(i.__mathlib_dbl_underflow) refers to dmul.o(.text) for __aeabi_dmul
    fabs.o(i.__hardfp_fabs) refers (Special) to iusefp.o(.text) for __I$use$fp
    fabs.o(i.__softfp_fabs) refers (Special) to iusefp.o(.text) for __I$use$fp
    fabs.o(i.fabs) refers (Special) to iusefp.o(.text) for __I$use$fp
    fpclassify.o(i.__ARM_fpclassify) refers (Special) to iusefp.o(.text) for __I$use$fp
    poly.o(i.__kernel_poly) refers (Special) to iusefp.o(.text) for __I$use$fp
    poly.o(i.__kernel_poly) refers to dmul.o(.text) for __aeabi_dmul
    poly.o(i.__kernel_poly) refers to dadd.o(.text) for __aeabi_dadd
    qnan.o(.constdata) refers (Special) to iusefp.o(.text) for __I$use$fp
    entry2.o(.ARM.Collect$$$$00000001) refers to entry2.o(.ARM.Collect$$$$00002712) for __lit__00000000
    entry2.o(.ARM.Collect$$$$00002712) refers to startup_stm32f427xx.o(STACK) for __initial_sp
    entry2.o(__vectab_stack_and_reset_area) refers to startup_stm32f427xx.o(STACK) for __initial_sp
    entry2.o(__vectab_stack_and_reset_area) refers to entry.o(.ARM.Collect$$$$00000000) for __main
    entry5.o(.ARM.Collect$$$$00000004) refers to init.o(.text) for __scatterload
    entry9a.o(.ARM.Collect$$$$0000000B) refers to main.o(i.main) for main
    entry9b.o(.ARM.Collect$$$$0000000C) refers to main.o(i.main) for main
    uldiv.o(.text) refers to llushr.o(.text) for __aeabi_llsr
    uldiv.o(.text) refers to llshl.o(.text) for __aeabi_llsl
    errno.o(i.__aeabi_errno_addr) refers to errno.o(.data) for .data
    errno.o(i.__read_errno) refers to errno.o(.data) for .data
    errno.o(i.__set_errno) refers to errno.o(.data) for .data
    depilogue.o(.text) refers to llshl.o(.text) for __aeabi_llsl
    depilogue.o(.text) refers to llushr.o(.text) for __aeabi_llsr
    dadd.o(.text) refers to llshl.o(.text) for __aeabi_llsl
    dadd.o(.text) refers to llsshr.o(.text) for __aeabi_lasr
    dadd.o(.text) refers to depilogue.o(.text) for _double_epilogue
    dsqrt.o(.text) refers to llushr.o(.text) for __aeabi_llsr
    dsqrt.o(.text) refers to depilogue.o(.text) for _double_round
    dfixul.o(.text) refers to llushr.o(.text) for __aeabi_llsr
    dfixul.o(.text) refers to llshl.o(.text) for __aeabi_llsl
    init.o(.text) refers to entry5.o(.ARM.Collect$$$$00000004) for __main_after_scatterload


==============================================================================

Removing Unused input sections from the image.

    Removing main.o(.rev16_text), (4 bytes).
    Removing main.o(.revsh_text), (4 bytes).
    Removing main.o(.rrx_text), (6 bytes).
    Removing stm32f4xx_it.o(.rev16_text), (4 bytes).
    Removing stm32f4xx_it.o(.revsh_text), (4 bytes).
    Removing stm32f4xx_it.o(.rrx_text), (6 bytes).
    Removing kos.o(.rev16_text), (4 bytes).
    Removing kos.o(.revsh_text), (4 bytes).
    Removing kos.o(.rrx_text), (6 bytes).
    Removing kos.o(i.KOS_Stop), (4 bytes).
    Removing sch.o(.rev16_text), (4 bytes).
    Removing sch.o(.revsh_text), (4 bytes).
    Removing sch.o(.rrx_text), (6 bytes).
    Removing sch.o(i.Sch_Dismiss), (68 bytes).
    Removing sch.o(i.Sch_Init), (28 bytes).
    Removing sch.o(i.Sch_Proc), (44 bytes).
    Removing act.o(.rev16_text), (4 bytes).
    Removing act.o(.revsh_text), (4 bytes).
    Removing act.o(.rrx_text), (6 bytes).
    Removing app.o(.rev16_text), (4 bytes).
    Removing app.o(.revsh_text), (4 bytes).
    Removing app.o(.rrx_text), (6 bytes).
    Removing cfg.o(.rev16_text), (4 bytes).
    Removing cfg.o(.revsh_text), (4 bytes).
    Removing cfg.o(.rrx_text), (6 bytes).
    Removing cfg.o(i.Cfg_ClrFlag), (12 bytes).
    Removing cfg.o(i.Cfg_GetVer), (12 bytes).
    Removing cfg.o(i.Cfg_Proc), (124 bytes).
    Removing cfg.o(i.Cfg_Save), (6 bytes).
    Removing cfg.o(i.Cfg_SetFlag), (12 bytes).
    Removing cfg.o(i.Cfg_SetVer), (12 bytes).
    Removing clk.o(.rev16_text), (4 bytes).
    Removing clk.o(.revsh_text), (4 bytes).
    Removing clk.o(.rrx_text), (6 bytes).
    Removing clk.o(i.Clk_GetUsTick), (12 bytes).
    Removing cmd.o(.rev16_text), (4 bytes).
    Removing cmd.o(.revsh_text), (4 bytes).
    Removing cmd.o(.rrx_text), (6 bytes).
    Removing com.o(.rev16_text), (4 bytes).
    Removing com.o(.revsh_text), (4 bytes).
    Removing com.o(.rrx_text), (6 bytes).
    Removing com.o(i.Com_Proc), (2 bytes).
    Removing ctl.o(.rev16_text), (4 bytes).
    Removing ctl.o(.revsh_text), (4 bytes).
    Removing ctl.o(.rrx_text), (6 bytes).
    Removing dbg.o(.rev16_text), (4 bytes).
    Removing dbg.o(.revsh_text), (4 bytes).
    Removing dbg.o(.rrx_text), (6 bytes).
    Removing dbg.o(i.Dbg_Cmd), (88 bytes).
    Removing dbg.o(i.Dbg_DBUS), (68 bytes).
    Removing dbg.o(i.Dbg_Motor), (40 bytes).
    Removing dbg.o(i.Dbg_Wdg), (64 bytes).
    Removing dbg.o(i.Dbg_Wsm), (44 bytes).
    Removing dbg.o(i.Dbg_ZGyro), (20 bytes).
    Removing dbg.o(.conststring), (71 bytes).
    Removing dci.o(.rev16_text), (4 bytes).
    Removing dci.o(.revsh_text), (4 bytes).
    Removing dci.o(.rrx_text), (6 bytes).
    Removing dci.o(i.Dci_Proc), (56 bytes).
    Removing dci.o(i.Rcv_Proc), (32 bytes).
    Removing fos.o(.rev16_text), (4 bytes).
    Removing fos.o(.revsh_text), (4 bytes).
    Removing fos.o(.rrx_text), (6 bytes).
    Removing fos.o(i.Fos_Write), (16 bytes).
    Removing fun.o(i.Flag_Set), (8 bytes).
    Removing fun.o(i.Flag_Tog), (16 bytes).
    Removing fun.o(i.constrain), (32 bytes).
    Removing fun.o(i.map), (26 bytes).
    Removing hci.o(.rev16_text), (4 bytes).
    Removing hci.o(.revsh_text), (4 bytes).
    Removing hci.o(.rrx_text), (6 bytes).
    Removing hci.o(i.GetChassisVelocityRef), (200 bytes).
    Removing hci.o(i.GetFunctionalStateRef), (88 bytes).
    Removing hci.o(i.Hci_Proc), (18 bytes).
    Removing ios.o(.rev16_text), (4 bytes).
    Removing ios.o(.revsh_text), (4 bytes).
    Removing ios.o(.rrx_text), (6 bytes).
    Removing ios.o(i.fgetc), (16 bytes).
    Removing mec.o(.rev16_text), (4 bytes).
    Removing mec.o(.revsh_text), (4 bytes).
    Removing mec.o(.rrx_text), (6 bytes).
    Removing odo.o(.rev16_text), (4 bytes).
    Removing odo.o(.revsh_text), (4 bytes).
    Removing odo.o(.rrx_text), (6 bytes).
    Removing rci.o(.rev16_text), (4 bytes).
    Removing rci.o(.revsh_text), (4 bytes).
    Removing rci.o(.rrx_text), (6 bytes).
    Removing rci.o(i.GetChassisVelocityRef), (144 bytes).
    Removing rci.o(i.GetSwitchEvents), (36 bytes).
    Removing rci.o(i.GetSwitchStates), (64 bytes).
    Removing rci.o(i.Rci_Proc), (4 bytes).
    Removing sys.o(i.FS_Set), (4 bytes).
    Removing sys.o(i.FS_Tog), (4 bytes).
    Removing upd.o(.rev16_text), (4 bytes).
    Removing upd.o(.revsh_text), (4 bytes).
    Removing upd.o(.rrx_text), (6 bytes).
    Removing wdg.o(i.Wdg_GetErr), (12 bytes).
    Removing wdg.o(i.Wdg_Hang), (24 bytes).
    Removing wsm.o(.rev16_text), (4 bytes).
    Removing wsm.o(.revsh_text), (4 bytes).
    Removing wsm.o(.rrx_text), (6 bytes).
    Removing ahrs.o(i.AHRS_Config), (10 bytes).
    Removing ahrs.o(i.AHRS_Q2Euler), (364 bytes).
    Removing ahrs.o(i.AHRS_Update), (824 bytes).
    Removing ahrs.o(i.invSqrt), (44 bytes).
    Removing cbus.o(i.CBUS_Dec), (48 bytes).
    Removing cbus.o(i.CBUS_Enc), (34 bytes).
    Removing crc16.o(i.CRC16Append), (34 bytes).
    Removing crc16.o(i.CRC16Calc), (48 bytes).
    Removing crc16.o(i.CRC16Check), (48 bytes).
    Removing crc16.o(.constdata), (512 bytes).
    Removing dbus.o(i.DBUS_Dec), (24 bytes).
    Removing dbus.o(i.DBUS_Enc), (24 bytes).
    Removing ekf.o(i.Ekf_Create), (24 bytes).
    Removing ekf.o(i.Ekf_Destroy), (10 bytes).
    Removing ekf.o(i.Ekf_SetD), (6 bytes).
    Removing ekf.o(i.Ekf_SetQ), (6 bytes).
    Removing ekf.o(i.Ekf_SetR), (6 bytes).
    Removing est.o(i.Est_Create), (96 bytes).
    Removing est.o(i.Est_Destroy), (30 bytes).
    Removing est.o(i.Est_Init), (8 bytes).
    Removing est.o(i.Est_Proc), (136 bytes).
    Removing est.o(i.Est_Reset), (48 bytes).
    Removing fifo.o(i.FIFO_Create), (54 bytes).
    Removing fifo.o(i.FIFO_Destroy), (30 bytes).
    Removing fifo.o(i.FIFO_GetFree), (8 bytes).
    Removing fifo.o(i.FIFO_GetSize), (4 bytes).
    Removing fifo.o(i.FIFO_GetUsed), (4 bytes).
    Removing fifo.o(i.FIFO_Peek), (40 bytes).
    Removing gdf.o(i.Gdf_Create), (54 bytes).
    Removing gdf.o(i.Gdf_Destroy), (30 bytes).
    Removing gdf.o(i.Gdf_Init), (8 bytes).
    Removing gdf.o(i.Gdf_Proc), (122 bytes).
    Removing gdf.o(i.Gdf_Reset), (56 bytes).
    Removing hcp.o(i.HCP_Dec), (30 bytes).
    Removing hcp.o(i.HCP_Enc), (60 bytes).
    Removing maf.o(i.Maf_Create), (56 bytes).
    Removing maf.o(i.Maf_Destroy), (30 bytes).
    Removing maf.o(i.Maf_Proc), (66 bytes).
    Removing msg.o(i.Msg_Pack), (4 bytes).
    Removing msg.o(i.Msg_Unpack), (4 bytes).
    Removing rcp.o(i.RCP_Dec), (78 bytes).
    Removing rcp.o(i.RCP_Enc), (64 bytes).
    Removing rmp.o(i.Rmp_IsOverflow), (14 bytes).
    Removing stack.o(i.Stack_Create), (48 bytes).
    Removing stack.o(i.Stack_Destroy), (30 bytes).
    Removing stack.o(i.Stack_Dump), (18 bytes).
    Removing stack.o(i.Stack_GetFree), (8 bytes).
    Removing stack.o(i.Stack_GetSize), (4 bytes).
    Removing stack.o(i.Stack_GetUsed), (4 bytes).
    Removing stack.o(i.Stack_Init), (8 bytes).
    Removing stack.o(i.Stack_IsEmpty), (12 bytes).
    Removing stack.o(i.Stack_IsFull), (16 bytes).
    Removing stack.o(i.Stack_Peek), (30 bytes).
    Removing stack.o(i.Stack_Pop), (32 bytes).
    Removing stack.o(i.Stack_Push), (32 bytes).
    Removing com_srv.o(.rev16_text), (4 bytes).
    Removing com_srv.o(.revsh_text), (4 bytes).
    Removing com_srv.o(.rrx_text), (6 bytes).
    Removing rcv_srv.o(.rev16_text), (4 bytes).
    Removing rcv_srv.o(.revsh_text), (4 bytes).
    Removing rcv_srv.o(.rrx_text), (6 bytes).
    Removing srv.o(.rev16_text), (4 bytes).
    Removing srv.o(.revsh_text), (4 bytes).
    Removing srv.o(.rrx_text), (6 bytes).
    Removing tim_srv.o(.rev16_text), (4 bytes).
    Removing tim_srv.o(.revsh_text), (4 bytes).
    Removing tim_srv.o(.rrx_text), (6 bytes).
    Removing bsp.o(.rev16_text), (4 bytes).
    Removing bsp.o(.revsh_text), (4 bytes).
    Removing bsp.o(.rrx_text), (6 bytes).
    Removing btm.o(.rev16_text), (4 bytes).
    Removing btm.o(.revsh_text), (4 bytes).
    Removing btm.o(.rrx_text), (6 bytes).
    Removing btm.o(i.Btm_Print), (20 bytes).
    Removing btm.o(i.Btm_Read), (28 bytes).
    Removing btm.o(i.Btm_RxCnt), (12 bytes).
    Removing btm.o(i.Btm_Write), (26 bytes).
    Removing btm.o(i.Btm_WriteByte), (60 bytes).
    Removing btn.o(.rev16_text), (4 bytes).
    Removing btn.o(.revsh_text), (4 bytes).
    Removing btn.o(.rrx_text), (6 bytes).
    Removing can1.o(.rev16_text), (4 bytes).
    Removing can1.o(.revsh_text), (4 bytes).
    Removing can1.o(.rrx_text), (6 bytes).
    Removing can2.o(.rev16_text), (4 bytes).
    Removing can2.o(.revsh_text), (4 bytes).
    Removing can2.o(.rrx_text), (6 bytes).
    Removing dbi.o(.rev16_text), (4 bytes).
    Removing dbi.o(.revsh_text), (4 bytes).
    Removing dbi.o(.rrx_text), (6 bytes).
    Removing dbi.o(i.Dbi_Print), (20 bytes).
    Removing dbi.o(i.Dbi_Read), (28 bytes).
    Removing dbi.o(i.Dbi_RxCnt), (12 bytes).
    Removing dbi.o(i.Dbi_Write), (26 bytes).
    Removing dbi.o(i.Dbi_WriteByte), (60 bytes).
    Removing led.o(.rev16_text), (4 bytes).
    Removing led.o(.revsh_text), (4 bytes).
    Removing led.o(.rrx_text), (6 bytes).
    Removing pwm.o(.rev16_text), (4 bytes).
    Removing pwm.o(.revsh_text), (4 bytes).
    Removing pwm.o(.rrx_text), (6 bytes).
    Removing rcv.o(.rev16_text), (4 bytes).
    Removing rcv.o(.revsh_text), (4 bytes).
    Removing rcv.o(.rrx_text), (6 bytes).
    Removing stm32util.o(.rev16_text), (4 bytes).
    Removing stm32util.o(.revsh_text), (4 bytes).
    Removing stm32util.o(.rrx_text), (6 bytes).
    Removing stm32util.o(i.EXTI_Bind), (196 bytes).
    Removing stm32util.o(i.EXTI_Config), (40 bytes).
    Removing stm32util.o(i.Encoder_Bind), (436 bytes).
    Removing tim.o(.rev16_text), (4 bytes).
    Removing tim.o(.revsh_text), (4 bytes).
    Removing tim.o(.rrx_text), (6 bytes).
    Removing tim.o(i.SyncTim_Stop), (40 bytes).
    Removing tim.o(i.TickTim_Stop), (36 bytes).
    Removing tim.o(i.Tim_Stop), (14 bytes).
    Removing tty.o(.rev16_text), (4 bytes).
    Removing tty.o(.revsh_text), (4 bytes).
    Removing tty.o(.rrx_text), (6 bytes).
    Removing tty.o(i.Tty_Print), (20 bytes).
    Removing tty.o(i.Tty_Read), (28 bytes).
    Removing tty.o(i.Tty_RxCnt), (12 bytes).
    Removing tty.o(i.Tty_Write), (26 bytes).
    Removing tty.o(i.Tty_WriteByte), (60 bytes).
    Removing delay.o(i.Delay_Ms), (24 bytes).
    Removing delay.o(i.Delay_Us), (18 bytes).
    Removing flash.o(.rev16_text), (4 bytes).
    Removing flash.o(.revsh_text), (4 bytes).
    Removing flash.o(.rrx_text), (6 bytes).
    Removing flash.o(i.Flash_GetSector), (160 bytes).
    Removing flash.o(i.Flash_Write), (128 bytes).
    Removing motor.o(.rev16_text), (4 bytes).
    Removing motor.o(.revsh_text), (4 bytes).
    Removing motor.o(.rrx_text), (6 bytes).
    Removing zgyro.o(.rev16_text), (4 bytes).
    Removing zgyro.o(.revsh_text), (4 bytes).
    Removing zgyro.o(.rrx_text), (6 bytes).
    Removing zgyro.o(i.ZGyro_RST), (82 bytes).
    Removing drv.o(.rev16_text), (4 bytes).
    Removing drv.o(.revsh_text), (4 bytes).
    Removing drv.o(.rrx_text), (6 bytes).
    Removing drv.o(i.Drv_Init), (2 bytes).
    Removing misc.o(.rev16_text), (4 bytes).
    Removing misc.o(.revsh_text), (4 bytes).
    Removing misc.o(.rrx_text), (6 bytes).
    Removing misc.o(i.NVIC_SetVectorTable), (20 bytes).
    Removing misc.o(i.NVIC_SystemLPConfig), (24 bytes).
    Removing misc.o(i.SysTick_CLKSourceConfig), (24 bytes).
    Removing stm32f4xx_adc.o(.rev16_text), (4 bytes).
    Removing stm32f4xx_adc.o(.revsh_text), (4 bytes).
    Removing stm32f4xx_adc.o(.rrx_text), (6 bytes).
    Removing stm32f4xx_adc.o(i.ADC_AnalogWatchdogCmd), (16 bytes).
    Removing stm32f4xx_adc.o(i.ADC_AnalogWatchdogSingleChannelConfig), (12 bytes).
    Removing stm32f4xx_adc.o(i.ADC_AnalogWatchdogThresholdsConfig), (6 bytes).
    Removing stm32f4xx_adc.o(i.ADC_AutoInjectedConvCmd), (20 bytes).
    Removing stm32f4xx_adc.o(i.ADC_ClearFlag), (6 bytes).
    Removing stm32f4xx_adc.o(i.ADC_ClearITPendingBit), (8 bytes).
    Removing stm32f4xx_adc.o(i.ADC_Cmd), (20 bytes).
    Removing stm32f4xx_adc.o(i.ADC_CommonInit), (44 bytes).
    Removing stm32f4xx_adc.o(i.ADC_CommonStructInit), (12 bytes).
    Removing stm32f4xx_adc.o(i.ADC_ContinuousModeCmd), (20 bytes).
    Removing stm32f4xx_adc.o(i.ADC_DMACmd), (20 bytes).
    Removing stm32f4xx_adc.o(i.ADC_DMARequestAfterLastTransferCmd), (20 bytes).
    Removing stm32f4xx_adc.o(i.ADC_DeInit), (24 bytes).
    Removing stm32f4xx_adc.o(i.ADC_DiscModeChannelCountConfig), (16 bytes).
    Removing stm32f4xx_adc.o(i.ADC_DiscModeCmd), (20 bytes).
    Removing stm32f4xx_adc.o(i.ADC_EOCOnEachRegularChannelCmd), (20 bytes).
    Removing stm32f4xx_adc.o(i.ADC_ExternalTrigInjectedConvConfig), (12 bytes).
    Removing stm32f4xx_adc.o(i.ADC_ExternalTrigInjectedConvEdgeConfig), (12 bytes).
    Removing stm32f4xx_adc.o(i.ADC_GetConversionValue), (6 bytes).
    Removing stm32f4xx_adc.o(i.ADC_GetFlagStatus), (14 bytes).
    Removing stm32f4xx_adc.o(i.ADC_GetITStatus), (30 bytes).
    Removing stm32f4xx_adc.o(i.ADC_GetInjectedConversionValue), (14 bytes).
    Removing stm32f4xx_adc.o(i.ADC_GetMultiModeConversionValue), (12 bytes).
    Removing stm32f4xx_adc.o(i.ADC_GetSoftwareStartConvStatus), (14 bytes).
    Removing stm32f4xx_adc.o(i.ADC_GetSoftwareStartInjectedConvCmdStatus), (14 bytes).
    Removing stm32f4xx_adc.o(i.ADC_ITConfig), (18 bytes).
    Removing stm32f4xx_adc.o(i.ADC_Init), (76 bytes).
    Removing stm32f4xx_adc.o(i.ADC_InjectedChannelConfig), (74 bytes).
    Removing stm32f4xx_adc.o(i.ADC_InjectedDiscModeCmd), (20 bytes).
    Removing stm32f4xx_adc.o(i.ADC_InjectedSequencerLengthConfig), (16 bytes).
    Removing stm32f4xx_adc.o(i.ADC_MultiModeDMARequestAfterLastTransferCmd), (32 bytes).
    Removing stm32f4xx_adc.o(i.ADC_RegularChannelConfig), (116 bytes).
    Removing stm32f4xx_adc.o(i.ADC_SetInjectedOffset), (10 bytes).
    Removing stm32f4xx_adc.o(i.ADC_SoftwareStartConv), (10 bytes).
    Removing stm32f4xx_adc.o(i.ADC_SoftwareStartInjectedConv), (10 bytes).
    Removing stm32f4xx_adc.o(i.ADC_StructInit), (20 bytes).
    Removing stm32f4xx_adc.o(i.ADC_TempSensorVrefintCmd), (32 bytes).
    Removing stm32f4xx_adc.o(i.ADC_VBATCmd), (32 bytes).
    Removing stm32f4xx_can.o(.rev16_text), (4 bytes).
    Removing stm32f4xx_can.o(.revsh_text), (4 bytes).
    Removing stm32f4xx_can.o(.rrx_text), (6 bytes).
    Removing stm32f4xx_can.o(i.CAN_CancelTransmit), (36 bytes).
    Removing stm32f4xx_can.o(i.CAN_DBGFreeze), (20 bytes).
    Removing stm32f4xx_can.o(i.CAN_DeInit), (44 bytes).
    Removing stm32f4xx_can.o(i.CAN_FIFORelease), (22 bytes).
    Removing stm32f4xx_can.o(i.CAN_GetFlagStatus), (52 bytes).
    Removing stm32f4xx_can.o(i.CAN_GetLSBTransmitErrorCounter), (8 bytes).
    Removing stm32f4xx_can.o(i.CAN_GetLastErrorCode), (10 bytes).
    Removing stm32f4xx_can.o(i.CAN_GetReceiveErrorCounter), (6 bytes).
    Removing stm32f4xx_can.o(i.CAN_MessagePending), (22 bytes).
    Removing stm32f4xx_can.o(i.CAN_OperatingModeRequest), (140 bytes).
    Removing stm32f4xx_can.o(i.CAN_SlaveStartBank), (44 bytes).
    Removing stm32f4xx_can.o(i.CAN_Sleep), (30 bytes).
    Removing stm32f4xx_can.o(i.CAN_StructInit), (32 bytes).
    Removing stm32f4xx_can.o(i.CAN_TTComModeCmd), (90 bytes).
    Removing stm32f4xx_can.o(i.CAN_TransmitStatus), (108 bytes).
    Removing stm32f4xx_can.o(i.CAN_WakeUp), (40 bytes).
    Removing stm32f4xx_cec.o(.rev16_text), (4 bytes).
    Removing stm32f4xx_cec.o(.revsh_text), (4 bytes).
    Removing stm32f4xx_cec.o(.rrx_text), (6 bytes).
    Removing stm32f4xx_crc.o(.rev16_text), (4 bytes).
    Removing stm32f4xx_crc.o(.revsh_text), (4 bytes).
    Removing stm32f4xx_crc.o(.rrx_text), (6 bytes).
    Removing stm32f4xx_crc.o(i.CRC_CalcBlockCRC), (28 bytes).
    Removing stm32f4xx_crc.o(i.CRC_CalcCRC), (12 bytes).
    Removing stm32f4xx_crc.o(i.CRC_GetCRC), (12 bytes).
    Removing stm32f4xx_crc.o(i.CRC_GetIDRegister), (12 bytes).
    Removing stm32f4xx_crc.o(i.CRC_ResetDR), (12 bytes).
    Removing stm32f4xx_crc.o(i.CRC_SetIDRegister), (12 bytes).
    Removing stm32f4xx_cryp.o(.rev16_text), (4 bytes).
    Removing stm32f4xx_cryp.o(.revsh_text), (4 bytes).
    Removing stm32f4xx_cryp.o(.rrx_text), (6 bytes).
    Removing stm32f4xx_cryp.o(i.CRYP_Cmd), (28 bytes).
    Removing stm32f4xx_cryp.o(i.CRYP_DMACmd), (28 bytes).
    Removing stm32f4xx_cryp.o(i.CRYP_DataIn), (12 bytes).
    Removing stm32f4xx_cryp.o(i.CRYP_DataOut), (12 bytes).
    Removing stm32f4xx_cryp.o(i.CRYP_DeInit), (22 bytes).
    Removing stm32f4xx_cryp.o(i.CRYP_FIFOFlush), (16 bytes).
    Removing stm32f4xx_cryp.o(i.CRYP_GetCmdStatus), (20 bytes).
    Removing stm32f4xx_cryp.o(i.CRYP_GetFlagStatus), (28 bytes).
    Removing stm32f4xx_cryp.o(i.CRYP_GetITStatus), (20 bytes).
    Removing stm32f4xx_cryp.o(i.CRYP_ITConfig), (28 bytes).
    Removing stm32f4xx_cryp.o(i.CRYP_IVInit), (24 bytes).
    Removing stm32f4xx_cryp.o(i.CRYP_IVStructInit), (12 bytes).
    Removing stm32f4xx_cryp.o(i.CRYP_Init), (92 bytes).
    Removing stm32f4xx_cryp.o(i.CRYP_KeyInit), (40 bytes).
    Removing stm32f4xx_cryp.o(i.CRYP_KeyStructInit), (20 bytes).
    Removing stm32f4xx_cryp.o(i.CRYP_PhaseConfig), (20 bytes).
    Removing stm32f4xx_cryp.o(i.CRYP_RestoreContext), (136 bytes).
    Removing stm32f4xx_cryp.o(i.CRYP_SaveContext), (220 bytes).
    Removing stm32f4xx_cryp.o(i.CRYP_StructInit), (12 bytes).
    Removing stm32f4xx_cryp_aes.o(.rev16_text), (4 bytes).
    Removing stm32f4xx_cryp_aes.o(.revsh_text), (4 bytes).
    Removing stm32f4xx_cryp_aes.o(.rrx_text), (6 bytes).
    Removing stm32f4xx_cryp_aes.o(i.CRYP_AES_CBC), (434 bytes).
    Removing stm32f4xx_cryp_aes.o(i.CRYP_AES_CCM), (1420 bytes).
    Removing stm32f4xx_cryp_aes.o(i.CRYP_AES_CTR), (388 bytes).
    Removing stm32f4xx_cryp_aes.o(i.CRYP_AES_ECB), (400 bytes).
    Removing stm32f4xx_cryp_aes.o(i.CRYP_AES_GCM), (1078 bytes).
    Removing stm32f4xx_cryp_des.o(.rev16_text), (4 bytes).
    Removing stm32f4xx_cryp_des.o(.revsh_text), (4 bytes).
    Removing stm32f4xx_cryp_des.o(.rrx_text), (6 bytes).
    Removing stm32f4xx_cryp_des.o(i.CRYP_DES_CBC), (226 bytes).
    Removing stm32f4xx_cryp_des.o(i.CRYP_DES_ECB), (204 bytes).
    Removing stm32f4xx_cryp_tdes.o(.rev16_text), (4 bytes).
    Removing stm32f4xx_cryp_tdes.o(.revsh_text), (4 bytes).
    Removing stm32f4xx_cryp_tdes.o(.rrx_text), (6 bytes).
    Removing stm32f4xx_cryp_tdes.o(i.CRYP_TDES_CBC), (258 bytes).
    Removing stm32f4xx_cryp_tdes.o(i.CRYP_TDES_ECB), (234 bytes).
    Removing stm32f4xx_dac.o(.rev16_text), (4 bytes).
    Removing stm32f4xx_dac.o(.revsh_text), (4 bytes).
    Removing stm32f4xx_dac.o(.rrx_text), (6 bytes).
    Removing stm32f4xx_dac.o(i.DAC_ClearFlag), (12 bytes).
    Removing stm32f4xx_dac.o(i.DAC_ClearITPendingBit), (12 bytes).
    Removing stm32f4xx_dac.o(i.DAC_Cmd), (24 bytes).
    Removing stm32f4xx_dac.o(i.DAC_DMACmd), (24 bytes).
    Removing stm32f4xx_dac.o(i.DAC_DeInit), (24 bytes).
    Removing stm32f4xx_dac.o(i.DAC_DualSoftwareTriggerCmd), (28 bytes).
    Removing stm32f4xx_dac.o(i.DAC_GetDataOutputValue), (24 bytes).
    Removing stm32f4xx_dac.o(i.DAC_GetFlagStatus), (24 bytes).
    Removing stm32f4xx_dac.o(i.DAC_GetITStatus), (36 bytes).
    Removing stm32f4xx_dac.o(i.DAC_ITConfig), (24 bytes).
    Removing stm32f4xx_dac.o(i.DAC_Init), (40 bytes).
    Removing stm32f4xx_dac.o(i.DAC_SetChannel1Data), (20 bytes).
    Removing stm32f4xx_dac.o(i.DAC_SetChannel2Data), (20 bytes).
    Removing stm32f4xx_dac.o(i.DAC_SetDualChannelData), (28 bytes).
    Removing stm32f4xx_dac.o(i.DAC_SoftwareTriggerCmd), (28 bytes).
    Removing stm32f4xx_dac.o(i.DAC_StructInit), (12 bytes).
    Removing stm32f4xx_dac.o(i.DAC_WaveGenerationCmd), (24 bytes).
    Removing stm32f4xx_dbgmcu.o(.rev16_text), (4 bytes).
    Removing stm32f4xx_dbgmcu.o(.revsh_text), (4 bytes).
    Removing stm32f4xx_dbgmcu.o(.rrx_text), (6 bytes).
    Removing stm32f4xx_dbgmcu.o(i.DBGMCU_APB1PeriphConfig), (24 bytes).
    Removing stm32f4xx_dbgmcu.o(i.DBGMCU_APB2PeriphConfig), (24 bytes).
    Removing stm32f4xx_dbgmcu.o(i.DBGMCU_Config), (24 bytes).
    Removing stm32f4xx_dbgmcu.o(i.DBGMCU_GetDEVID), (16 bytes).
    Removing stm32f4xx_dbgmcu.o(i.DBGMCU_GetREVID), (12 bytes).
    Removing stm32f4xx_dcmi.o(.rev16_text), (4 bytes).
    Removing stm32f4xx_dcmi.o(.revsh_text), (4 bytes).
    Removing stm32f4xx_dcmi.o(.rrx_text), (6 bytes).
    Removing stm32f4xx_dcmi.o(i.DCMI_CROPCmd), (28 bytes).
    Removing stm32f4xx_dcmi.o(i.DCMI_CROPConfig), (24 bytes).
    Removing stm32f4xx_dcmi.o(i.DCMI_CaptureCmd), (28 bytes).
    Removing stm32f4xx_dcmi.o(i.DCMI_ClearFlag), (12 bytes).
    Removing stm32f4xx_dcmi.o(i.DCMI_ClearITPendingBit), (12 bytes).
    Removing stm32f4xx_dcmi.o(i.DCMI_Cmd), (28 bytes).
    Removing stm32f4xx_dcmi.o(i.DCMI_DeInit), (28 bytes).
    Removing stm32f4xx_dcmi.o(i.DCMI_GetFlagStatus), (36 bytes).
    Removing stm32f4xx_dcmi.o(i.DCMI_GetITStatus), (20 bytes).
    Removing stm32f4xx_dcmi.o(i.DCMI_ITConfig), (28 bytes).
    Removing stm32f4xx_dcmi.o(i.DCMI_Init), (60 bytes).
    Removing stm32f4xx_dcmi.o(i.DCMI_JPEGCmd), (28 bytes).
    Removing stm32f4xx_dcmi.o(i.DCMI_ReadData), (12 bytes).
    Removing stm32f4xx_dcmi.o(i.DCMI_SetEmbeddedSynchroCodes), (20 bytes).
    Removing stm32f4xx_dcmi.o(i.DCMI_StructInit), (18 bytes).
    Removing stm32f4xx_dfsdm.o(.rev16_text), (4 bytes).
    Removing stm32f4xx_dfsdm.o(.revsh_text), (4 bytes).
    Removing stm32f4xx_dfsdm.o(.rrx_text), (6 bytes).
    Removing stm32f4xx_dma.o(.rev16_text), (4 bytes).
    Removing stm32f4xx_dma.o(.revsh_text), (4 bytes).
    Removing stm32f4xx_dma.o(.rrx_text), (6 bytes).
    Removing stm32f4xx_dma.o(i.DMA_ClearFlag), (44 bytes).
    Removing stm32f4xx_dma.o(i.DMA_ClearITPendingBit), (44 bytes).
    Removing stm32f4xx_dma.o(i.DMA_DeInit), (292 bytes).
    Removing stm32f4xx_dma.o(i.DMA_FlowControllerConfig), (20 bytes).
    Removing stm32f4xx_dma.o(i.DMA_GetCmdStatus), (14 bytes).
    Removing stm32f4xx_dma.o(i.DMA_GetFIFOStatus), (8 bytes).
    Removing stm32f4xx_dma.o(i.DMA_GetFlagStatus), (52 bytes).
    Removing stm32f4xx_dma.o(i.DMA_GetITStatus), (84 bytes).
    Removing stm32f4xx_dma.o(i.DMA_ITConfig), (44 bytes).
    Removing stm32f4xx_dma.o(i.DMA_MemoryTargetConfig), (10 bytes).
    Removing stm32f4xx_dma.o(i.DMA_PeriphIncOffsetSizeConfig), (20 bytes).
    Removing stm32f4xx_dma.o(i.DMA_SetCurrDataCounter), (4 bytes).
    Removing stm32f4xx_dma.o(i.DMA_StructInit), (34 bytes).
    Removing stm32f4xx_dma2d.o(.rev16_text), (4 bytes).
    Removing stm32f4xx_dma2d.o(.revsh_text), (4 bytes).
    Removing stm32f4xx_dma2d.o(.rrx_text), (6 bytes).
    Removing stm32f4xx_dma2d.o(i.DMA2D_AbortTransfer), (16 bytes).
    Removing stm32f4xx_dma2d.o(i.DMA2D_BGConfig), (108 bytes).
    Removing stm32f4xx_dma2d.o(i.DMA2D_BGStart), (28 bytes).
    Removing stm32f4xx_dma2d.o(i.DMA2D_BG_StructInit), (26 bytes).
    Removing stm32f4xx_dma2d.o(i.DMA2D_ClearFlag), (12 bytes).
    Removing stm32f4xx_dma2d.o(i.DMA2D_ClearITPendingBit), (12 bytes).
    Removing stm32f4xx_dma2d.o(i.DMA2D_DeInit), (24 bytes).
    Removing stm32f4xx_dma2d.o(i.DMA2D_DeadTimeConfig), (44 bytes).
    Removing stm32f4xx_dma2d.o(i.DMA2D_FGConfig), (108 bytes).
    Removing stm32f4xx_dma2d.o(i.DMA2D_FGStart), (28 bytes).
    Removing stm32f4xx_dma2d.o(i.DMA2D_FG_StructInit), (26 bytes).
    Removing stm32f4xx_dma2d.o(i.DMA2D_GetFlagStatus), (20 bytes).
    Removing stm32f4xx_dma2d.o(i.DMA2D_GetITStatus), (36 bytes).
    Removing stm32f4xx_dma2d.o(i.DMA2D_ITConfig), (24 bytes).
    Removing stm32f4xx_dma2d.o(i.DMA2D_Init), (180 bytes).
    Removing stm32f4xx_dma2d.o(i.DMA2D_LineWatermarkConfig), (12 bytes).
    Removing stm32f4xx_dma2d.o(i.DMA2D_StartTransfer), (16 bytes).
    Removing stm32f4xx_dma2d.o(i.DMA2D_StructInit), (24 bytes).
    Removing stm32f4xx_dma2d.o(i.DMA2D_Suspend), (28 bytes).
    Removing stm32f4xx_dsi.o(.rev16_text), (4 bytes).
    Removing stm32f4xx_dsi.o(.revsh_text), (4 bytes).
    Removing stm32f4xx_dsi.o(.rrx_text), (6 bytes).
    Removing stm32f4xx_exti.o(.rev16_text), (4 bytes).
    Removing stm32f4xx_exti.o(.revsh_text), (4 bytes).
    Removing stm32f4xx_exti.o(.rrx_text), (6 bytes).
    Removing stm32f4xx_exti.o(i.EXTI_ClearFlag), (12 bytes).
    Removing stm32f4xx_exti.o(i.EXTI_ClearITPendingBit), (12 bytes).
    Removing stm32f4xx_exti.o(i.EXTI_DeInit), (36 bytes).
    Removing stm32f4xx_exti.o(i.EXTI_GenerateSWInterrupt), (16 bytes).
    Removing stm32f4xx_exti.o(i.EXTI_GetFlagStatus), (20 bytes).
    Removing stm32f4xx_exti.o(i.EXTI_GetITStatus), (20 bytes).
    Removing stm32f4xx_exti.o(i.EXTI_Init), (112 bytes).
    Removing stm32f4xx_exti.o(i.EXTI_StructInit), (14 bytes).
    Removing stm32f4xx_flash.o(.rev16_text), (4 bytes).
    Removing stm32f4xx_flash.o(.revsh_text), (4 bytes).
    Removing stm32f4xx_flash.o(.rrx_text), (6 bytes).
    Removing stm32f4xx_flash.o(i.FLASH_ClearFlag), (12 bytes).
    Removing stm32f4xx_flash.o(i.FLASH_DataCacheCmd), (28 bytes).
    Removing stm32f4xx_flash.o(i.FLASH_DataCacheReset), (16 bytes).
    Removing stm32f4xx_flash.o(i.FLASH_EraseAllBank1Sectors), (92 bytes).
    Removing stm32f4xx_flash.o(i.FLASH_EraseAllBank2Sectors), (92 bytes).
    Removing stm32f4xx_flash.o(i.FLASH_EraseAllSectors), (88 bytes).
    Removing stm32f4xx_flash.o(i.FLASH_EraseSector), (108 bytes).
    Removing stm32f4xx_flash.o(i.FLASH_GetFlagStatus), (20 bytes).
    Removing stm32f4xx_flash.o(i.FLASH_GetStatus), (60 bytes).
    Removing stm32f4xx_flash.o(i.FLASH_ITConfig), (24 bytes).
    Removing stm32f4xx_flash.o(i.FLASH_InstructionCacheCmd), (28 bytes).
    Removing stm32f4xx_flash.o(i.FLASH_InstructionCacheReset), (16 bytes).
    Removing stm32f4xx_flash.o(i.FLASH_Lock), (16 bytes).
    Removing stm32f4xx_flash.o(i.FLASH_OB_BORConfig), (24 bytes).
    Removing stm32f4xx_flash.o(i.FLASH_OB_BootConfig), (24 bytes).
    Removing stm32f4xx_flash.o(i.FLASH_OB_GetBOR), (16 bytes).
    Removing stm32f4xx_flash.o(i.FLASH_OB_GetPCROP), (12 bytes).
    Removing stm32f4xx_flash.o(i.FLASH_OB_GetPCROP1), (12 bytes).
    Removing stm32f4xx_flash.o(i.FLASH_OB_GetRDP), (20 bytes).
    Removing stm32f4xx_flash.o(i.FLASH_OB_GetUser), (16 bytes).
    Removing stm32f4xx_flash.o(i.FLASH_OB_GetWRP), (12 bytes).
    Removing stm32f4xx_flash.o(i.FLASH_OB_GetWRP1), (12 bytes).
    Removing stm32f4xx_flash.o(i.FLASH_OB_Launch), (20 bytes).
    Removing stm32f4xx_flash.o(i.FLASH_OB_Lock), (16 bytes).
    Removing stm32f4xx_flash.o(i.FLASH_OB_PCROP1Config), (36 bytes).
    Removing stm32f4xx_flash.o(i.FLASH_OB_PCROPConfig), (36 bytes).
    Removing stm32f4xx_flash.o(i.FLASH_OB_PCROPSelectionConfig), (20 bytes).
    Removing stm32f4xx_flash.o(i.FLASH_OB_RDPConfig), (24 bytes).
    Removing stm32f4xx_flash.o(i.FLASH_OB_Unlock), (36 bytes).
    Removing stm32f4xx_flash.o(i.FLASH_OB_UserConfig), (40 bytes).
    Removing stm32f4xx_flash.o(i.FLASH_OB_WRP1Config), (36 bytes).
    Removing stm32f4xx_flash.o(i.FLASH_OB_WRPConfig), (36 bytes).
    Removing stm32f4xx_flash.o(i.FLASH_PrefetchBufferCmd), (28 bytes).
    Removing stm32f4xx_flash.o(i.FLASH_ProgramByte), (56 bytes).
    Removing stm32f4xx_flash.o(i.FLASH_ProgramDoubleWord), (64 bytes).
    Removing stm32f4xx_flash.o(i.FLASH_ProgramHalfWord), (60 bytes).
    Removing stm32f4xx_flash.o(i.FLASH_ProgramWord), (60 bytes).
    Removing stm32f4xx_flash.o(i.FLASH_SetLatency), (12 bytes).
    Removing stm32f4xx_flash.o(i.FLASH_Unlock), (36 bytes).
    Removing stm32f4xx_flash.o(i.FLASH_WaitForLastOperation), (30 bytes).
    Removing stm32f4xx_flash_ramfunc.o(.rev16_text), (4 bytes).
    Removing stm32f4xx_flash_ramfunc.o(.revsh_text), (4 bytes).
    Removing stm32f4xx_flash_ramfunc.o(.rrx_text), (6 bytes).
    Removing stm32f4xx_flash_ramfunc.o(i.FLASH_FlashInterfaceCmd), (28 bytes).
    Removing stm32f4xx_flash_ramfunc.o(i.FLASH_FlashSleepModeCmd), (28 bytes).
    Removing stm32f4xx_fmc.o(.rev16_text), (4 bytes).
    Removing stm32f4xx_fmc.o(.revsh_text), (4 bytes).
    Removing stm32f4xx_fmc.o(.rrx_text), (6 bytes).
    Removing stm32f4xx_fmc.o(i.FMC_ClearFlag), (56 bytes).
    Removing stm32f4xx_fmc.o(i.FMC_ClearITPendingBit), (62 bytes).
    Removing stm32f4xx_fmc.o(i.FMC_GetECC), (18 bytes).
    Removing stm32f4xx_fmc.o(i.FMC_GetFlagStatus), (54 bytes).
    Removing stm32f4xx_fmc.o(i.FMC_GetITStatus), (82 bytes).
    Removing stm32f4xx_fmc.o(i.FMC_GetModeStatus), (26 bytes).
    Removing stm32f4xx_fmc.o(i.FMC_ITConfig), (102 bytes).
    Removing stm32f4xx_fmc.o(i.FMC_NANDCmd), (56 bytes).
    Removing stm32f4xx_fmc.o(i.FMC_NANDDeInit), (40 bytes).
    Removing stm32f4xx_fmc.o(i.FMC_NANDECCCmd), (56 bytes).
    Removing stm32f4xx_fmc.o(i.FMC_NANDInit), (164 bytes).
    Removing stm32f4xx_fmc.o(i.FMC_NANDStructInit), (54 bytes).
    Removing stm32f4xx_fmc.o(i.FMC_NORSRAMCmd), (32 bytes).
    Removing stm32f4xx_fmc.o(i.FMC_NORSRAMDeInit), (40 bytes).
    Removing stm32f4xx_fmc.o(i.FMC_NORSRAMInit), (280 bytes).
    Removing stm32f4xx_fmc.o(i.FMC_NORSRAMStructInit), (52 bytes).
    Removing stm32f4xx_fmc.o(i.FMC_PCCARDCmd), (32 bytes).
    Removing stm32f4xx_fmc.o(i.FMC_PCCARDDeInit), (26 bytes).
    Removing stm32f4xx_fmc.o(i.FMC_PCCARDInit), (120 bytes).
    Removing stm32f4xx_fmc.o(i.FMC_PCCARDStructInit), (60 bytes).
    Removing stm32f4xx_fmc.o(i.FMC_SDRAMCmdConfig), (34 bytes).
    Removing stm32f4xx_fmc.o(i.FMC_SDRAMDeInit), (42 bytes).
    Removing stm32f4xx_fmc.o(i.FMC_SDRAMInit), (288 bytes).
    Removing stm32f4xx_fmc.o(i.FMC_SDRAMStructInit), (60 bytes).
    Removing stm32f4xx_fmc.o(i.FMC_SDRAMWriteProtectionConfig), (32 bytes).
    Removing stm32f4xx_fmc.o(i.FMC_SetAutoRefresh_Number), (18 bytes).
    Removing stm32f4xx_fmc.o(i.FMC_SetRefreshCount), (18 bytes).
    Removing stm32f4xx_fmc.o(.constdata), (28 bytes).
    Removing stm32f4xx_fmip2c.o(.rev16_text), (4 bytes).
    Removing stm32f4xx_fmip2c.o(.revsh_text), (4 bytes).
    Removing stm32f4xx_fmip2c.o(.rrx_text), (6 bytes).
    Removing stm32f4xx_fsmc.o(.rev16_text), (4 bytes).
    Removing stm32f4xx_fsmc.o(.revsh_text), (4 bytes).
    Removing stm32f4xx_fsmc.o(.rrx_text), (6 bytes).
    Removing stm32f4xx_gpio.o(.rev16_text), (4 bytes).
    Removing stm32f4xx_gpio.o(.revsh_text), (4 bytes).
    Removing stm32f4xx_gpio.o(.rrx_text), (6 bytes).
    Removing stm32f4xx_gpio.o(i.GPIO_DeInit), (260 bytes).
    Removing stm32f4xx_gpio.o(i.GPIO_PinLockConfig), (24 bytes).
    Removing stm32f4xx_gpio.o(i.GPIO_ReadInputData), (6 bytes).
    Removing stm32f4xx_gpio.o(i.GPIO_ReadInputDataBit), (14 bytes).
    Removing stm32f4xx_gpio.o(i.GPIO_ReadOutputData), (6 bytes).
    Removing stm32f4xx_gpio.o(i.GPIO_StructInit), (18 bytes).
    Removing stm32f4xx_gpio.o(i.GPIO_ToggleBits), (8 bytes).
    Removing stm32f4xx_gpio.o(i.GPIO_Write), (4 bytes).
    Removing stm32f4xx_gpio.o(i.GPIO_WriteBit), (10 bytes).
    Removing stm32f4xx_hash.o(.rev16_text), (4 bytes).
    Removing stm32f4xx_hash.o(.revsh_text), (4 bytes).
    Removing stm32f4xx_hash.o(.rrx_text), (6 bytes).
    Removing stm32f4xx_hash.o(i.HASH_AutoStartDigest), (28 bytes).
    Removing stm32f4xx_hash.o(i.HASH_ClearFlag), (12 bytes).
    Removing stm32f4xx_hash.o(i.HASH_ClearITPendingBit), (12 bytes).
    Removing stm32f4xx_hash.o(i.HASH_DMACmd), (28 bytes).
    Removing stm32f4xx_hash.o(i.HASH_DataIn), (12 bytes).
    Removing stm32f4xx_hash.o(i.HASH_DeInit), (22 bytes).
    Removing stm32f4xx_hash.o(i.HASH_GetDigest), (72 bytes).
    Removing stm32f4xx_hash.o(i.HASH_GetFlagStatus), (32 bytes).
    Removing stm32f4xx_hash.o(i.HASH_GetITStatus), (28 bytes).
    Removing stm32f4xx_hash.o(i.HASH_GetInFIFOWordsNbr), (16 bytes).
    Removing stm32f4xx_hash.o(i.HASH_ITConfig), (24 bytes).
    Removing stm32f4xx_hash.o(i.HASH_Init), (68 bytes).
    Removing stm32f4xx_hash.o(i.HASH_Reset), (16 bytes).
    Removing stm32f4xx_hash.o(i.HASH_RestoreContext), (68 bytes).
    Removing stm32f4xx_hash.o(i.HASH_SaveContext), (60 bytes).
    Removing stm32f4xx_hash.o(i.HASH_SetLastWordValidBitsNbr), (24 bytes).
    Removing stm32f4xx_hash.o(i.HASH_StartDigest), (16 bytes).
    Removing stm32f4xx_hash.o(i.HASH_StructInit), (12 bytes).
    Removing stm32f4xx_hash_md5.o(.rev16_text), (4 bytes).
    Removing stm32f4xx_hash_md5.o(.revsh_text), (4 bytes).
    Removing stm32f4xx_hash_md5.o(.rrx_text), (6 bytes).
    Removing stm32f4xx_hash_md5.o(i.HASH_MD5), (158 bytes).
    Removing stm32f4xx_hash_md5.o(i.HMAC_MD5), (320 bytes).
    Removing stm32f4xx_hash_sha1.o(.rev16_text), (4 bytes).
    Removing stm32f4xx_hash_sha1.o(.revsh_text), (4 bytes).
    Removing stm32f4xx_hash_sha1.o(.rrx_text), (6 bytes).
    Removing stm32f4xx_hash_sha1.o(i.HASH_SHA1), (164 bytes).
    Removing stm32f4xx_hash_sha1.o(i.HMAC_SHA1), (324 bytes).
    Removing stm32f4xx_i2c.o(.rev16_text), (4 bytes).
    Removing stm32f4xx_i2c.o(.revsh_text), (4 bytes).
    Removing stm32f4xx_i2c.o(.rrx_text), (6 bytes).
    Removing stm32f4xx_i2c.o(i.I2C_ARPCmd), (20 bytes).
    Removing stm32f4xx_i2c.o(i.I2C_AcknowledgeConfig), (20 bytes).
    Removing stm32f4xx_i2c.o(i.I2C_AnalogFilterCmd), (20 bytes).
    Removing stm32f4xx_i2c.o(i.I2C_CalculatePEC), (20 bytes).
    Removing stm32f4xx_i2c.o(i.I2C_CheckEvent), (24 bytes).
    Removing stm32f4xx_i2c.o(i.I2C_ClearFlag), (6 bytes).
    Removing stm32f4xx_i2c.o(i.I2C_ClearITPendingBit), (6 bytes).
    Removing stm32f4xx_i2c.o(i.I2C_Cmd), (20 bytes).
    Removing stm32f4xx_i2c.o(i.I2C_DMACmd), (20 bytes).
    Removing stm32f4xx_i2c.o(i.I2C_DMALastTransferCmd), (20 bytes).
    Removing stm32f4xx_i2c.o(i.I2C_DeInit), (68 bytes).
    Removing stm32f4xx_i2c.o(i.I2C_DigitalFilterConfig), (16 bytes).
    Removing stm32f4xx_i2c.o(i.I2C_DualAddressCmd), (20 bytes).
    Removing stm32f4xx_i2c.o(i.I2C_FastModeDutyCycleConfig), (22 bytes).
    Removing stm32f4xx_i2c.o(i.I2C_GeneralCallCmd), (20 bytes).
    Removing stm32f4xx_i2c.o(i.I2C_GenerateSTART), (20 bytes).
    Removing stm32f4xx_i2c.o(i.I2C_GenerateSTOP), (20 bytes).
    Removing stm32f4xx_i2c.o(i.I2C_GetFlagStatus), (42 bytes).
    Removing stm32f4xx_i2c.o(i.I2C_GetITStatus), (36 bytes).
    Removing stm32f4xx_i2c.o(i.I2C_GetLastEvent), (14 bytes).
    Removing stm32f4xx_i2c.o(i.I2C_GetPEC), (6 bytes).
    Removing stm32f4xx_i2c.o(i.I2C_ITConfig), (16 bytes).
    Removing stm32f4xx_i2c.o(i.I2C_Init), (184 bytes).
    Removing stm32f4xx_i2c.o(i.I2C_NACKPositionConfig), (22 bytes).
    Removing stm32f4xx_i2c.o(i.I2C_OwnAddress2Config), (16 bytes).
    Removing stm32f4xx_i2c.o(i.I2C_PECPositionConfig), (22 bytes).
    Removing stm32f4xx_i2c.o(i.I2C_ReadRegister), (10 bytes).
    Removing stm32f4xx_i2c.o(i.I2C_ReceiveData), (6 bytes).
    Removing stm32f4xx_i2c.o(i.I2C_SMBusAlertConfig), (22 bytes).
    Removing stm32f4xx_i2c.o(i.I2C_Send7bitAddress), (16 bytes).
    Removing stm32f4xx_i2c.o(i.I2C_SendData), (4 bytes).
    Removing stm32f4xx_i2c.o(i.I2C_SoftwareResetCmd), (20 bytes).
    Removing stm32f4xx_i2c.o(i.I2C_StretchClockCmd), (20 bytes).
    Removing stm32f4xx_i2c.o(i.I2C_StructInit), (28 bytes).
    Removing stm32f4xx_i2c.o(i.I2C_TransmitPEC), (20 bytes).
    Removing stm32f4xx_iwdg.o(.rev16_text), (4 bytes).
    Removing stm32f4xx_iwdg.o(.revsh_text), (4 bytes).
    Removing stm32f4xx_iwdg.o(.rrx_text), (6 bytes).
    Removing stm32f4xx_iwdg.o(i.IWDG_Enable), (16 bytes).
    Removing stm32f4xx_iwdg.o(i.IWDG_GetFlagStatus), (20 bytes).
    Removing stm32f4xx_iwdg.o(i.IWDG_ReloadCounter), (16 bytes).
    Removing stm32f4xx_iwdg.o(i.IWDG_SetPrescaler), (12 bytes).
    Removing stm32f4xx_iwdg.o(i.IWDG_SetReload), (12 bytes).
    Removing stm32f4xx_iwdg.o(i.IWDG_WriteAccessCmd), (12 bytes).
    Removing stm32f4xx_lptim.o(.rev16_text), (4 bytes).
    Removing stm32f4xx_lptim.o(.revsh_text), (4 bytes).
    Removing stm32f4xx_lptim.o(.rrx_text), (6 bytes).
    Removing stm32f4xx_ltdc.o(.rev16_text), (4 bytes).
    Removing stm32f4xx_ltdc.o(.revsh_text), (4 bytes).
    Removing stm32f4xx_ltdc.o(.rrx_text), (6 bytes).
    Removing stm32f4xx_ltdc.o(i.LTDC_CLUTCmd), (32 bytes).
    Removing stm32f4xx_ltdc.o(i.LTDC_CLUTInit), (26 bytes).
    Removing stm32f4xx_ltdc.o(i.LTDC_CLUTStructInit), (12 bytes).
    Removing stm32f4xx_ltdc.o(i.LTDC_ClearFlag), (12 bytes).
    Removing stm32f4xx_ltdc.o(i.LTDC_ClearITPendingBit), (12 bytes).
    Removing stm32f4xx_ltdc.o(i.LTDC_Cmd), (28 bytes).
    Removing stm32f4xx_ltdc.o(i.LTDC_ColorKeyingConfig), (64 bytes).
    Removing stm32f4xx_ltdc.o(i.LTDC_ColorKeyingStructInit), (10 bytes).
    Removing stm32f4xx_ltdc.o(i.LTDC_DeInit), (24 bytes).
    Removing stm32f4xx_ltdc.o(i.LTDC_DitherCmd), (28 bytes).
    Removing stm32f4xx_ltdc.o(i.LTDC_GetCDStatus), (20 bytes).
    Removing stm32f4xx_ltdc.o(i.LTDC_GetFlagStatus), (20 bytes).
    Removing stm32f4xx_ltdc.o(i.LTDC_GetITStatus), (36 bytes).
    Removing stm32f4xx_ltdc.o(i.LTDC_GetPosStatus), (28 bytes).
    Removing stm32f4xx_ltdc.o(i.LTDC_GetRGBWidth), (44 bytes).
    Removing stm32f4xx_ltdc.o(i.LTDC_ITConfig), (24 bytes).
    Removing stm32f4xx_ltdc.o(i.LTDC_Init), (168 bytes).
    Removing stm32f4xx_ltdc.o(i.LTDC_LIPConfig), (12 bytes).
    Removing stm32f4xx_ltdc.o(i.LTDC_LayerAddress), (4 bytes).
    Removing stm32f4xx_ltdc.o(i.LTDC_LayerAlpha), (4 bytes).
    Removing stm32f4xx_ltdc.o(i.LTDC_LayerCmd), (20 bytes).
    Removing stm32f4xx_ltdc.o(i.LTDC_LayerInit), (150 bytes).
    Removing stm32f4xx_ltdc.o(i.LTDC_LayerPixelFormat), (96 bytes).
    Removing stm32f4xx_ltdc.o(i.LTDC_LayerPosition), (116 bytes).
    Removing stm32f4xx_ltdc.o(i.LTDC_LayerSize), (86 bytes).
    Removing stm32f4xx_ltdc.o(i.LTDC_LayerStructInit), (44 bytes).
    Removing stm32f4xx_ltdc.o(i.LTDC_PosStructInit), (8 bytes).
    Removing stm32f4xx_ltdc.o(i.LTDC_RGBStructInit), (10 bytes).
    Removing stm32f4xx_ltdc.o(i.LTDC_ReloadConfig), (12 bytes).
    Removing stm32f4xx_ltdc.o(i.LTDC_StructInit), (34 bytes).
    Removing stm32f4xx_pwr.o(.rev16_text), (4 bytes).
    Removing stm32f4xx_pwr.o(.revsh_text), (4 bytes).
    Removing stm32f4xx_pwr.o(.rrx_text), (6 bytes).
    Removing stm32f4xx_pwr.o(i.PWR_BackupAccessCmd), (12 bytes).
    Removing stm32f4xx_pwr.o(i.PWR_BackupRegulatorCmd), (12 bytes).
    Removing stm32f4xx_pwr.o(i.PWR_ClearFlag), (32 bytes).
    Removing stm32f4xx_pwr.o(i.PWR_DeInit), (24 bytes).
    Removing stm32f4xx_pwr.o(i.PWR_EnterSTANDBYMode), (32 bytes).
    Removing stm32f4xx_pwr.o(i.PWR_EnterSTOPMode), (56 bytes).
    Removing stm32f4xx_pwr.o(i.PWR_EnterUnderDriveSTOPMode), (56 bytes).
    Removing stm32f4xx_pwr.o(i.PWR_FlashPowerDownCmd), (12 bytes).
    Removing stm32f4xx_pwr.o(i.PWR_GetFlagStatus), (20 bytes).
    Removing stm32f4xx_pwr.o(i.PWR_LowRegulatorUnderDriveCmd), (16 bytes).
    Removing stm32f4xx_pwr.o(i.PWR_MainRegulatorModeConfig), (20 bytes).
    Removing stm32f4xx_pwr.o(i.PWR_MainRegulatorUnderDriveCmd), (16 bytes).
    Removing stm32f4xx_pwr.o(i.PWR_OverDriveCmd), (12 bytes).
    Removing stm32f4xx_pwr.o(i.PWR_OverDriveSWCmd), (12 bytes).
    Removing stm32f4xx_pwr.o(i.PWR_PVDCmd), (12 bytes).
    Removing stm32f4xx_pwr.o(i.PWR_PVDLevelConfig), (20 bytes).
    Removing stm32f4xx_pwr.o(i.PWR_UnderDriveCmd), (28 bytes).
    Removing stm32f4xx_pwr.o(i.PWR_WakeUpPinCmd), (12 bytes).
    Removing stm32f4xx_qspi.o(.rev16_text), (4 bytes).
    Removing stm32f4xx_qspi.o(.revsh_text), (4 bytes).
    Removing stm32f4xx_qspi.o(.rrx_text), (6 bytes).
    Removing stm32f4xx_rcc.o(.rev16_text), (4 bytes).
    Removing stm32f4xx_rcc.o(.revsh_text), (4 bytes).
    Removing stm32f4xx_rcc.o(.rrx_text), (6 bytes).
    Removing stm32f4xx_rcc.o(i.RCC_AHB1PeriphClockLPModeCmd), (24 bytes).
    Removing stm32f4xx_rcc.o(i.RCC_AHB1PeriphResetCmd), (24 bytes).
    Removing stm32f4xx_rcc.o(i.RCC_AHB2PeriphClockCmd), (24 bytes).
    Removing stm32f4xx_rcc.o(i.RCC_AHB2PeriphClockLPModeCmd), (24 bytes).
    Removing stm32f4xx_rcc.o(i.RCC_AHB2PeriphResetCmd), (24 bytes).
    Removing stm32f4xx_rcc.o(i.RCC_AHB3PeriphClockCmd), (24 bytes).
    Removing stm32f4xx_rcc.o(i.RCC_AHB3PeriphClockLPModeCmd), (24 bytes).
    Removing stm32f4xx_rcc.o(i.RCC_AHB3PeriphResetCmd), (24 bytes).
    Removing stm32f4xx_rcc.o(i.RCC_APB1PeriphClockLPModeCmd), (24 bytes).
    Removing stm32f4xx_rcc.o(i.RCC_APB1PeriphResetCmd), (24 bytes).
    Removing stm32f4xx_rcc.o(i.RCC_APB2PeriphClockLPModeCmd), (24 bytes).
    Removing stm32f4xx_rcc.o(i.RCC_APB2PeriphResetCmd), (24 bytes).
    Removing stm32f4xx_rcc.o(i.RCC_AdjustHSICalibrationValue), (20 bytes).
    Removing stm32f4xx_rcc.o(i.RCC_BackupResetCmd), (12 bytes).
    Removing stm32f4xx_rcc.o(i.RCC_ClearFlag), (16 bytes).
    Removing stm32f4xx_rcc.o(i.RCC_ClearITPendingBit), (12 bytes).
    Removing stm32f4xx_rcc.o(i.RCC_ClockSecuritySystemCmd), (12 bytes).
    Removing stm32f4xx_rcc.o(i.RCC_DeInit), (84 bytes).
    Removing stm32f4xx_rcc.o(i.RCC_GetFlagStatus), (52 bytes).
    Removing stm32f4xx_rcc.o(i.RCC_GetITStatus), (20 bytes).
    Removing stm32f4xx_rcc.o(i.RCC_GetSYSCLKSource), (16 bytes).
    Removing stm32f4xx_rcc.o(i.RCC_HCLKConfig), (20 bytes).
    Removing stm32f4xx_rcc.o(i.RCC_HSEConfig), (16 bytes).
    Removing stm32f4xx_rcc.o(i.RCC_HSICmd), (12 bytes).
    Removing stm32f4xx_rcc.o(i.RCC_I2SCLKConfig), (12 bytes).
    Removing stm32f4xx_rcc.o(i.RCC_ITConfig), (24 bytes).
    Removing stm32f4xx_rcc.o(i.RCC_LSEConfig), (28 bytes).
    Removing stm32f4xx_rcc.o(i.RCC_LSEModeConfig), (28 bytes).
    Removing stm32f4xx_rcc.o(i.RCC_LSICmd), (12 bytes).
    Removing stm32f4xx_rcc.o(i.RCC_LTDCCLKDivConfig), (20 bytes).
    Removing stm32f4xx_rcc.o(i.RCC_MCO1Config), (20 bytes).
    Removing stm32f4xx_rcc.o(i.RCC_MCO2Config), (20 bytes).
    Removing stm32f4xx_rcc.o(i.RCC_PCLK1Config), (20 bytes).
    Removing stm32f4xx_rcc.o(i.RCC_PCLK2Config), (20 bytes).
    Removing stm32f4xx_rcc.o(i.RCC_PLLCmd), (12 bytes).
    Removing stm32f4xx_rcc.o(i.RCC_PLLConfig), (40 bytes).
    Removing stm32f4xx_rcc.o(i.RCC_PLLI2SCmd), (12 bytes).
    Removing stm32f4xx_rcc.o(i.RCC_PLLI2SConfig), (20 bytes).
    Removing stm32f4xx_rcc.o(i.RCC_PLLSAICmd), (12 bytes).
    Removing stm32f4xx_rcc.o(i.RCC_PLLSAIConfig), (20 bytes).
    Removing stm32f4xx_rcc.o(i.RCC_RTCCLKCmd), (12 bytes).
    Removing stm32f4xx_rcc.o(i.RCC_RTCCLKConfig), (48 bytes).
    Removing stm32f4xx_rcc.o(i.RCC_SAIBlockACLKConfig), (20 bytes).
    Removing stm32f4xx_rcc.o(i.RCC_SAIBlockBCLKConfig), (20 bytes).
    Removing stm32f4xx_rcc.o(i.RCC_SAIPLLI2SClkDivConfig), (20 bytes).
    Removing stm32f4xx_rcc.o(i.RCC_SAIPLLSAIClkDivConfig), (28 bytes).
    Removing stm32f4xx_rcc.o(i.RCC_SYSCLKConfig), (20 bytes).
    Removing stm32f4xx_rcc.o(i.RCC_TIMCLKPresConfig), (12 bytes).
    Removing stm32f4xx_rcc.o(i.RCC_WaitForHSEStartUp), (44 bytes).
    Removing stm32f4xx_rng.o(.rev16_text), (4 bytes).
    Removing stm32f4xx_rng.o(.revsh_text), (4 bytes).
    Removing stm32f4xx_rng.o(.rrx_text), (6 bytes).
    Removing stm32f4xx_rng.o(i.RNG_ClearFlag), (16 bytes).
    Removing stm32f4xx_rng.o(i.RNG_ClearITPendingBit), (16 bytes).
    Removing stm32f4xx_rng.o(i.RNG_Cmd), (28 bytes).
    Removing stm32f4xx_rng.o(i.RNG_DeInit), (22 bytes).
    Removing stm32f4xx_rng.o(i.RNG_GetFlagStatus), (20 bytes).
    Removing stm32f4xx_rng.o(i.RNG_GetITStatus), (20 bytes).
    Removing stm32f4xx_rng.o(i.RNG_GetRandomNumber), (12 bytes).
    Removing stm32f4xx_rng.o(i.RNG_ITConfig), (28 bytes).
    Removing stm32f4xx_rtc.o(.rev16_text), (4 bytes).
    Removing stm32f4xx_rtc.o(.revsh_text), (4 bytes).
    Removing stm32f4xx_rtc.o(.rrx_text), (6 bytes).
    Removing stm32f4xx_rtc.o(i.RTC_AlarmCmd), (84 bytes).
    Removing stm32f4xx_rtc.o(i.RTC_AlarmStructInit), (20 bytes).
    Removing stm32f4xx_rtc.o(i.RTC_AlarmSubSecondConfig), (44 bytes).
    Removing stm32f4xx_rtc.o(i.RTC_Bcd2ToByte), (18 bytes).
    Removing stm32f4xx_rtc.o(i.RTC_BypassShadowCmd), (44 bytes).
    Removing stm32f4xx_rtc.o(i.RTC_ByteToBcd2), (24 bytes).
    Removing stm32f4xx_rtc.o(i.RTC_CalibOutputCmd), (44 bytes).
    Removing stm32f4xx_rtc.o(i.RTC_CalibOutputConfig), (40 bytes).
    Removing stm32f4xx_rtc.o(i.RTC_ClearFlag), (28 bytes).
    Removing stm32f4xx_rtc.o(i.RTC_ClearITPendingBit), (28 bytes).
    Removing stm32f4xx_rtc.o(i.RTC_CoarseCalibCmd), (60 bytes).
    Removing stm32f4xx_rtc.o(i.RTC_CoarseCalibConfig), (52 bytes).
    Removing stm32f4xx_rtc.o(i.RTC_DateStructInit), (14 bytes).
    Removing stm32f4xx_rtc.o(i.RTC_DayLightSavingConfig), (44 bytes).
    Removing stm32f4xx_rtc.o(i.RTC_DeInit), (176 bytes).
    Removing stm32f4xx_rtc.o(i.RTC_EnterInitMode), (60 bytes).
    Removing stm32f4xx_rtc.o(i.RTC_ExitInitMode), (16 bytes).
    Removing stm32f4xx_rtc.o(i.RTC_GetAlarm), (108 bytes).
    Removing stm32f4xx_rtc.o(i.RTC_GetAlarmSubSecond), (28 bytes).
    Removing stm32f4xx_rtc.o(i.RTC_GetDate), (72 bytes).
    Removing stm32f4xx_rtc.o(i.RTC_GetFlagStatus), (28 bytes).
    Removing stm32f4xx_rtc.o(i.RTC_GetITStatus), (64 bytes).
    Removing stm32f4xx_rtc.o(i.RTC_GetStoreOperation), (16 bytes).
    Removing stm32f4xx_rtc.o(i.RTC_GetSubSecond), (16 bytes).
    Removing stm32f4xx_rtc.o(i.RTC_GetTime), (76 bytes).
    Removing stm32f4xx_rtc.o(i.RTC_GetTimeStamp), (136 bytes).
    Removing stm32f4xx_rtc.o(i.RTC_GetTimeStampSubSecond), (12 bytes).
    Removing stm32f4xx_rtc.o(i.RTC_GetWakeUpCounter), (12 bytes).
    Removing stm32f4xx_rtc.o(i.RTC_ITConfig), (64 bytes).
    Removing stm32f4xx_rtc.o(i.RTC_Init), (80 bytes).
    Removing stm32f4xx_rtc.o(i.RTC_OutputConfig), (44 bytes).
    Removing stm32f4xx_rtc.o(i.RTC_OutputTypeConfig), (24 bytes).
    Removing stm32f4xx_rtc.o(i.RTC_ReadBackupRegister), (20 bytes).
    Removing stm32f4xx_rtc.o(i.RTC_RefClockCmd), (60 bytes).
    Removing stm32f4xx_rtc.o(i.RTC_SetAlarm), (164 bytes).
    Removing stm32f4xx_rtc.o(i.RTC_SetDate), (156 bytes).
    Removing stm32f4xx_rtc.o(i.RTC_SetTime), (160 bytes).
    Removing stm32f4xx_rtc.o(i.RTC_SetWakeUpCounter), (28 bytes).
    Removing stm32f4xx_rtc.o(i.RTC_SmoothCalibConfig), (76 bytes).
    Removing stm32f4xx_rtc.o(i.RTC_StructInit), (14 bytes).
    Removing stm32f4xx_rtc.o(i.RTC_SynchroShiftConfig), (88 bytes).
    Removing stm32f4xx_rtc.o(i.RTC_TamperCmd), (24 bytes).
    Removing stm32f4xx_rtc.o(i.RTC_TamperFilterConfig), (24 bytes).
    Removing stm32f4xx_rtc.o(i.RTC_TamperPinSelection), (24 bytes).
    Removing stm32f4xx_rtc.o(i.RTC_TamperPinsPrechargeDuration), (24 bytes).
    Removing stm32f4xx_rtc.o(i.RTC_TamperPullUpCmd), (28 bytes).
    Removing stm32f4xx_rtc.o(i.RTC_TamperSamplingFreqConfig), (24 bytes).
    Removing stm32f4xx_rtc.o(i.RTC_TamperTriggerConfig), (28 bytes).
    Removing stm32f4xx_rtc.o(i.RTC_TimeStampCmd), (48 bytes).
    Removing stm32f4xx_rtc.o(i.RTC_TimeStampOnTamperDetectionCmd), (28 bytes).
    Removing stm32f4xx_rtc.o(i.RTC_TimeStampPinSelection), (24 bytes).
    Removing stm32f4xx_rtc.o(i.RTC_TimeStructInit), (12 bytes).
    Removing stm32f4xx_rtc.o(i.RTC_WaitForSynchro), (76 bytes).
    Removing stm32f4xx_rtc.o(i.RTC_WakeUpClockConfig), (40 bytes).
    Removing stm32f4xx_rtc.o(i.RTC_WakeUpCmd), (88 bytes).
    Removing stm32f4xx_rtc.o(i.RTC_WriteBackupRegister), (20 bytes).
    Removing stm32f4xx_rtc.o(i.RTC_WriteProtectionCmd), (24 bytes).
    Removing stm32f4xx_sai.o(.rev16_text), (4 bytes).
    Removing stm32f4xx_sai.o(.revsh_text), (4 bytes).
    Removing stm32f4xx_sai.o(.rrx_text), (6 bytes).
    Removing stm32f4xx_sai.o(i.SAI_BlockSynchroConfig), (32 bytes).
    Removing stm32f4xx_sai.o(i.SAI_ClearFlag), (8 bytes).
    Removing stm32f4xx_sai.o(i.SAI_ClearITPendingBit), (8 bytes).
    Removing stm32f4xx_sai.o(i.SAI_Cmd), (20 bytes).
    Removing stm32f4xx_sai.o(i.SAI_CompandingModeConfig), (16 bytes).
    Removing stm32f4xx_sai.o(i.SAI_DMACmd), (20 bytes).
    Removing stm32f4xx_sai.o(i.SAI_DeInit), (36 bytes).
    Removing stm32f4xx_sai.o(i.SAI_FlushFIFO), (10 bytes).
    Removing stm32f4xx_sai.o(i.SAI_FrameInit), (48 bytes).
    Removing stm32f4xx_sai.o(i.SAI_FrameStructInit), (18 bytes).
    Removing stm32f4xx_sai.o(i.SAI_GetCmdStatus), (14 bytes).
    Removing stm32f4xx_sai.o(i.SAI_GetFIFOStatus), (8 bytes).
    Removing stm32f4xx_sai.o(i.SAI_GetFlagStatus), (14 bytes).
    Removing stm32f4xx_sai.o(i.SAI_GetITStatus), (22 bytes).
    Removing stm32f4xx_sai.o(i.SAI_ITConfig), (16 bytes).
    Removing stm32f4xx_sai.o(i.SAI_Init), (72 bytes).
    Removing stm32f4xx_sai.o(i.SAI_MonoModeConfig), (18 bytes).
    Removing stm32f4xx_sai.o(i.SAI_MuteFrameCounterConfig), (18 bytes).
    Removing stm32f4xx_sai.o(i.SAI_MuteModeCmd), (20 bytes).
    Removing stm32f4xx_sai.o(i.SAI_MuteValueConfig), (16 bytes).
    Removing stm32f4xx_sai.o(i.SAI_ReceiveData), (4 bytes).
    Removing stm32f4xx_sai.o(i.SAI_SendData), (4 bytes).
    Removing stm32f4xx_sai.o(i.SAI_SlotInit), (38 bytes).
    Removing stm32f4xx_sai.o(i.SAI_SlotStructInit), (14 bytes).
    Removing stm32f4xx_sai.o(i.SAI_StructInit), (28 bytes).
    Removing stm32f4xx_sai.o(i.SAI_TRIStateConfig), (18 bytes).
    Removing stm32f4xx_sdio.o(.rev16_text), (4 bytes).
    Removing stm32f4xx_sdio.o(.revsh_text), (4 bytes).
    Removing stm32f4xx_sdio.o(.rrx_text), (6 bytes).
    Removing stm32f4xx_sdio.o(i.SDIO_CEATAITCmd), (16 bytes).
    Removing stm32f4xx_sdio.o(i.SDIO_ClearFlag), (12 bytes).
    Removing stm32f4xx_sdio.o(i.SDIO_ClearITPendingBit), (12 bytes).
    Removing stm32f4xx_sdio.o(i.SDIO_ClockCmd), (12 bytes).
    Removing stm32f4xx_sdio.o(i.SDIO_CmdStructInit), (14 bytes).
    Removing stm32f4xx_sdio.o(i.SDIO_CommandCompletionCmd), (12 bytes).
    Removing stm32f4xx_sdio.o(i.SDIO_DMACmd), (12 bytes).
    Removing stm32f4xx_sdio.o(i.SDIO_DataConfig), (48 bytes).
    Removing stm32f4xx_sdio.o(i.SDIO_DataStructInit), (20 bytes).
    Removing stm32f4xx_sdio.o(i.SDIO_DeInit), (24 bytes).
    Removing stm32f4xx_sdio.o(i.SDIO_GetCommandResponse), (12 bytes).
    Removing stm32f4xx_sdio.o(i.SDIO_GetDataCounter), (12 bytes).
    Removing stm32f4xx_sdio.o(i.SDIO_GetFIFOCount), (12 bytes).
    Removing stm32f4xx_sdio.o(i.SDIO_GetFlagStatus), (20 bytes).
    Removing stm32f4xx_sdio.o(i.SDIO_GetITStatus), (20 bytes).
    Removing stm32f4xx_sdio.o(i.SDIO_GetPowerState), (16 bytes).
    Removing stm32f4xx_sdio.o(i.SDIO_GetResponse), (16 bytes).
    Removing stm32f4xx_sdio.o(i.SDIO_ITConfig), (24 bytes).
    Removing stm32f4xx_sdio.o(i.SDIO_Init), (44 bytes).
    Removing stm32f4xx_sdio.o(i.SDIO_ReadData), (12 bytes).
    Removing stm32f4xx_sdio.o(i.SDIO_SendCEATACmd), (12 bytes).
    Removing stm32f4xx_sdio.o(i.SDIO_SendCommand), (40 bytes).
    Removing stm32f4xx_sdio.o(i.SDIO_SendSDIOSuspendCmd), (12 bytes).
    Removing stm32f4xx_sdio.o(i.SDIO_SetPowerState), (12 bytes).
    Removing stm32f4xx_sdio.o(i.SDIO_SetSDIOOperation), (12 bytes).
    Removing stm32f4xx_sdio.o(i.SDIO_SetSDIOReadWaitMode), (12 bytes).
    Removing stm32f4xx_sdio.o(i.SDIO_StartSDIOReadWait), (12 bytes).
    Removing stm32f4xx_sdio.o(i.SDIO_StopSDIOReadWait), (12 bytes).
    Removing stm32f4xx_sdio.o(i.SDIO_StructInit), (16 bytes).
    Removing stm32f4xx_sdio.o(i.SDIO_WriteData), (12 bytes).
    Removing stm32f4xx_spdifrx.o(.rev16_text), (4 bytes).
    Removing stm32f4xx_spdifrx.o(.revsh_text), (4 bytes).
    Removing stm32f4xx_spdifrx.o(.rrx_text), (6 bytes).
    Removing stm32f4xx_spi.o(.rev16_text), (4 bytes).
    Removing stm32f4xx_spi.o(.revsh_text), (4 bytes).
    Removing stm32f4xx_spi.o(.rrx_text), (6 bytes).
    Removing stm32f4xx_spi.o(i.I2S_Cmd), (20 bytes).
    Removing stm32f4xx_spi.o(i.I2S_FullDuplexConfig), (58 bytes).
    Removing stm32f4xx_spi.o(i.I2S_Init), (212 bytes).
    Removing stm32f4xx_spi.o(i.I2S_StructInit), (18 bytes).
    Removing stm32f4xx_spi.o(i.SPI_BiDirectionalLineConfig), (22 bytes).
    Removing stm32f4xx_spi.o(i.SPI_CalculateCRC), (20 bytes).
    Removing stm32f4xx_spi.o(i.SPI_Cmd), (20 bytes).
    Removing stm32f4xx_spi.o(i.SPI_DataSizeConfig), (16 bytes).
    Removing stm32f4xx_spi.o(i.SPI_GetCRC), (12 bytes).
    Removing stm32f4xx_spi.o(i.SPI_GetCRCPolynomial), (4 bytes).
    Removing stm32f4xx_spi.o(i.SPI_I2S_ClearFlag), (6 bytes).
    Removing stm32f4xx_spi.o(i.SPI_I2S_ClearITPendingBit), (14 bytes).
    Removing stm32f4xx_spi.o(i.SPI_I2S_DMACmd), (16 bytes).
    Removing stm32f4xx_spi.o(i.SPI_I2S_DeInit), (132 bytes).
    Removing stm32f4xx_spi.o(i.SPI_I2S_GetFlagStatus), (14 bytes).
    Removing stm32f4xx_spi.o(i.SPI_I2S_GetITStatus), (42 bytes).
    Removing stm32f4xx_spi.o(i.SPI_I2S_ITConfig), (24 bytes).
    Removing stm32f4xx_spi.o(i.SPI_I2S_ReceiveData), (4 bytes).
    Removing stm32f4xx_spi.o(i.SPI_I2S_SendData), (4 bytes).
    Removing stm32f4xx_spi.o(i.SPI_Init), (56 bytes).
    Removing stm32f4xx_spi.o(i.SPI_NSSInternalSoftwareConfig), (24 bytes).
    Removing stm32f4xx_spi.o(i.SPI_SSOutputCmd), (20 bytes).
    Removing stm32f4xx_spi.o(i.SPI_StructInit), (24 bytes).
    Removing stm32f4xx_spi.o(i.SPI_TIModeCmd), (20 bytes).
    Removing stm32f4xx_spi.o(i.SPI_TransmitCRC), (10 bytes).
    Removing stm32f4xx_syscfg.o(.rev16_text), (4 bytes).
    Removing stm32f4xx_syscfg.o(.revsh_text), (4 bytes).
    Removing stm32f4xx_syscfg.o(.rrx_text), (6 bytes).
    Removing stm32f4xx_syscfg.o(i.SYSCFG_CompensationCellCmd), (12 bytes).
    Removing stm32f4xx_syscfg.o(i.SYSCFG_DeInit), (24 bytes).
    Removing stm32f4xx_syscfg.o(i.SYSCFG_ETH_MediaInterfaceConfig), (12 bytes).
    Removing stm32f4xx_syscfg.o(i.SYSCFG_EXTILineConfig), (48 bytes).
    Removing stm32f4xx_syscfg.o(i.SYSCFG_GetCompensationCellStatus), (20 bytes).
    Removing stm32f4xx_syscfg.o(i.SYSCFG_MemoryRemapConfig), (12 bytes).
    Removing stm32f4xx_syscfg.o(i.SYSCFG_MemorySwappingBank), (12 bytes).
    Removing stm32f4xx_tim.o(.rev16_text), (4 bytes).
    Removing stm32f4xx_tim.o(.revsh_text), (4 bytes).
    Removing stm32f4xx_tim.o(.rrx_text), (6 bytes).
    Removing stm32f4xx_tim.o(i.TI1_Config), (46 bytes).
    Removing stm32f4xx_tim.o(i.TI2_Config), (54 bytes).
    Removing stm32f4xx_tim.o(i.TIM_BDTRConfig), (34 bytes).
    Removing stm32f4xx_tim.o(i.TIM_BDTRStructInit), (18 bytes).
    Removing stm32f4xx_tim.o(i.TIM_CCPreloadControl), (20 bytes).
    Removing stm32f4xx_tim.o(i.TIM_CCxCmd), (22 bytes).
    Removing stm32f4xx_tim.o(i.TIM_CCxNCmd), (22 bytes).
    Removing stm32f4xx_tim.o(i.TIM_ClearOC1Ref), (12 bytes).
    Removing stm32f4xx_tim.o(i.TIM_ClearOC2Ref), (20 bytes).
    Removing stm32f4xx_tim.o(i.TIM_ClearOC3Ref), (12 bytes).
    Removing stm32f4xx_tim.o(i.TIM_ClearOC4Ref), (20 bytes).
    Removing stm32f4xx_tim.o(i.TIM_CounterModeConfig), (12 bytes).
    Removing stm32f4xx_tim.o(i.TIM_CtrlPWMOutputs), (22 bytes).
    Removing stm32f4xx_tim.o(i.TIM_DMACmd), (16 bytes).
    Removing stm32f4xx_tim.o(i.TIM_DMAConfig), (8 bytes).
    Removing stm32f4xx_tim.o(i.TIM_DeInit), (336 bytes).
    Removing stm32f4xx_tim.o(i.TIM_ETRClockMode1Config), (18 bytes).
    Removing stm32f4xx_tim.o(i.TIM_ETRClockMode2Config), (18 bytes).
    Removing stm32f4xx_tim.o(i.TIM_ETRConfig), (24 bytes).
    Removing stm32f4xx_tim.o(i.TIM_EncoderInterfaceConfig), (50 bytes).
    Removing stm32f4xx_tim.o(i.TIM_ForcedOC1Config), (12 bytes).
    Removing stm32f4xx_tim.o(i.TIM_ForcedOC2Config), (20 bytes).
    Removing stm32f4xx_tim.o(i.TIM_ForcedOC3Config), (12 bytes).
    Removing stm32f4xx_tim.o(i.TIM_ForcedOC4Config), (20 bytes).
    Removing stm32f4xx_tim.o(i.TIM_GenerateEvent), (4 bytes).
    Removing stm32f4xx_tim.o(i.TIM_GetCapture1), (4 bytes).
    Removing stm32f4xx_tim.o(i.TIM_GetCapture2), (4 bytes).
    Removing stm32f4xx_tim.o(i.TIM_GetCapture3), (4 bytes).
    Removing stm32f4xx_tim.o(i.TIM_GetCapture4), (4 bytes).
    Removing stm32f4xx_tim.o(i.TIM_GetCounter), (4 bytes).
    Removing stm32f4xx_tim.o(i.TIM_GetFlagStatus), (14 bytes).
    Removing stm32f4xx_tim.o(i.TIM_GetPrescaler), (4 bytes).
    Removing stm32f4xx_tim.o(i.TIM_ICInit), (172 bytes).
    Removing stm32f4xx_tim.o(i.TIM_ICStructInit), (16 bytes).
    Removing stm32f4xx_tim.o(i.TIM_ITRxExternalClockConfig), (18 bytes).
    Removing stm32f4xx_tim.o(i.TIM_InternalClockConfig), (10 bytes).
    Removing stm32f4xx_tim.o(i.TIM_OC1FastConfig), (12 bytes).
    Removing stm32f4xx_tim.o(i.TIM_OC1NPolarityConfig), (12 bytes).
    Removing stm32f4xx_tim.o(i.TIM_OC1PolarityConfig), (12 bytes).
    Removing stm32f4xx_tim.o(i.TIM_OC2FastConfig), (20 bytes).
    Removing stm32f4xx_tim.o(i.TIM_OC2NPolarityConfig), (20 bytes).
    Removing stm32f4xx_tim.o(i.TIM_OC2PolarityConfig), (20 bytes).
    Removing stm32f4xx_tim.o(i.TIM_OC3FastConfig), (12 bytes).
    Removing stm32f4xx_tim.o(i.TIM_OC3NPolarityConfig), (20 bytes).
    Removing stm32f4xx_tim.o(i.TIM_OC3PolarityConfig), (20 bytes).
    Removing stm32f4xx_tim.o(i.TIM_OC4FastConfig), (20 bytes).
    Removing stm32f4xx_tim.o(i.TIM_OC4PolarityConfig), (20 bytes).
    Removing stm32f4xx_tim.o(i.TIM_OCStructInit), (20 bytes).
    Removing stm32f4xx_tim.o(i.TIM_PWMIConfig), (108 bytes).
    Removing stm32f4xx_tim.o(i.TIM_PrescalerConfig), (6 bytes).
    Removing stm32f4xx_tim.o(i.TIM_RemapConfig), (6 bytes).
    Removing stm32f4xx_tim.o(i.TIM_SelectCCDMA), (20 bytes).
    Removing stm32f4xx_tim.o(i.TIM_SelectCOM), (20 bytes).
    Removing stm32f4xx_tim.o(i.TIM_SelectHallSensor), (20 bytes).
    Removing stm32f4xx_tim.o(i.TIM_SelectInputTrigger), (12 bytes).
    Removing stm32f4xx_tim.o(i.TIM_SelectMasterSlaveMode), (16 bytes).
    Removing stm32f4xx_tim.o(i.TIM_SelectOCxM), (74 bytes).
    Removing stm32f4xx_tim.o(i.TIM_SelectOnePulseMode), (16 bytes).
    Removing stm32f4xx_tim.o(i.TIM_SelectOutputTrigger), (16 bytes).
    Removing stm32f4xx_tim.o(i.TIM_SelectSlaveMode), (16 bytes).
    Removing stm32f4xx_tim.o(i.TIM_SetAutoreload), (4 bytes).
    Removing stm32f4xx_tim.o(i.TIM_SetClockDivision), (16 bytes).
    Removing stm32f4xx_tim.o(i.TIM_SetCompare1), (4 bytes).
    Removing stm32f4xx_tim.o(i.TIM_SetCompare2), (4 bytes).
    Removing stm32f4xx_tim.o(i.TIM_SetCompare3), (4 bytes).
    Removing stm32f4xx_tim.o(i.TIM_SetCompare4), (4 bytes).
    Removing stm32f4xx_tim.o(i.TIM_SetCounter), (4 bytes).
    Removing stm32f4xx_tim.o(i.TIM_SetIC1Prescaler), (16 bytes).
    Removing stm32f4xx_tim.o(i.TIM_SetIC2Prescaler), (24 bytes).
    Removing stm32f4xx_tim.o(i.TIM_SetIC3Prescaler), (16 bytes).
    Removing stm32f4xx_tim.o(i.TIM_SetIC4Prescaler), (24 bytes).
    Removing stm32f4xx_tim.o(i.TIM_TIxExternalClockConfig), (46 bytes).
    Removing stm32f4xx_tim.o(i.TIM_TimeBaseStructInit), (18 bytes).
    Removing stm32f4xx_tim.o(i.TIM_UpdateDisableConfig), (20 bytes).
    Removing stm32f4xx_tim.o(i.TIM_UpdateRequestConfig), (20 bytes).
    Removing stm32f4xx_usart.o(.rev16_text), (4 bytes).
    Removing stm32f4xx_usart.o(.revsh_text), (4 bytes).
    Removing stm32f4xx_usart.o(.rrx_text), (6 bytes).
    Removing stm32f4xx_usart.o(i.USART_ClockInit), (28 bytes).
    Removing stm32f4xx_usart.o(i.USART_ClockStructInit), (12 bytes).
    Removing stm32f4xx_usart.o(i.USART_DeInit), (172 bytes).
    Removing stm32f4xx_usart.o(i.USART_HalfDuplexCmd), (20 bytes).
    Removing stm32f4xx_usart.o(i.USART_IrDACmd), (20 bytes).
    Removing stm32f4xx_usart.o(i.USART_IrDAConfig), (16 bytes).
    Removing stm32f4xx_usart.o(i.USART_LINBreakDetectLengthConfig), (16 bytes).
    Removing stm32f4xx_usart.o(i.USART_LINCmd), (20 bytes).
    Removing stm32f4xx_usart.o(i.USART_OneBitMethodCmd), (20 bytes).
    Removing stm32f4xx_usart.o(i.USART_OverSampling8Cmd), (20 bytes).
    Removing stm32f4xx_usart.o(i.USART_ReceiverWakeUpCmd), (20 bytes).
    Removing stm32f4xx_usart.o(i.USART_SendBreak), (10 bytes).
    Removing stm32f4xx_usart.o(i.USART_SetAddress), (16 bytes).
    Removing stm32f4xx_usart.o(i.USART_SetGuardTime), (16 bytes).
    Removing stm32f4xx_usart.o(i.USART_SetPrescaler), (16 bytes).
    Removing stm32f4xx_usart.o(i.USART_SmartCardCmd), (20 bytes).
    Removing stm32f4xx_usart.o(i.USART_SmartCardNACKCmd), (20 bytes).
    Removing stm32f4xx_usart.o(i.USART_StructInit), (22 bytes).
    Removing stm32f4xx_usart.o(i.USART_WakeUpConfig), (16 bytes).
    Removing stm32f4xx_wwdg.o(.rev16_text), (4 bytes).
    Removing stm32f4xx_wwdg.o(.revsh_text), (4 bytes).
    Removing stm32f4xx_wwdg.o(.rrx_text), (6 bytes).
    Removing stm32f4xx_wwdg.o(i.WWDG_ClearFlag), (12 bytes).
    Removing stm32f4xx_wwdg.o(i.WWDG_DeInit), (24 bytes).
    Removing stm32f4xx_wwdg.o(i.WWDG_Enable), (16 bytes).
    Removing stm32f4xx_wwdg.o(i.WWDG_EnableIT), (16 bytes).
    Removing stm32f4xx_wwdg.o(i.WWDG_GetFlagStatus), (20 bytes).
    Removing stm32f4xx_wwdg.o(i.WWDG_SetCounter), (16 bytes).
    Removing stm32f4xx_wwdg.o(i.WWDG_SetPrescaler), (20 bytes).
    Removing stm32f4xx_wwdg.o(i.WWDG_SetWindowValue), (28 bytes).
    Removing system_stm32f4xx.o(.rev16_text), (4 bytes).
    Removing system_stm32f4xx.o(.revsh_text), (4 bytes).
    Removing system_stm32f4xx.o(.rrx_text), (6 bytes).
    Removing system_stm32f4xx.o(i.SystemCoreClockUpdate), (124 bytes).
    Removing system_stm32f4xx.o(.data), (20 bytes).
    Removing f2d.o(.text), (38 bytes).
    Removing d2f.o(.text), (56 bytes).
    Removing fepilogue.o(.text), (110 bytes).
    Removing dneg.o(.text), (6 bytes).
    Removing dsqrt.o(.text), (162 bytes).
    Removing cdcmple.o(.text), (48 bytes).

1045 unused section(s) (total 34569 bytes) removed from the image.

==============================================================================

Image Symbol Table

    Local Symbols

    Symbol Name                              Value     Ov Type        Size  Object(Section)

    ../clib/../cmprslib/zerorunl2.c          0x00000000   Number         0  __dczerorl2.o ABSOLUTE
    ../clib/microlib/division.c              0x00000000   Number         0  uidiv.o ABSOLUTE
    ../clib/microlib/division.c              0x00000000   Number         0  uldiv.o ABSOLUTE
    ../clib/microlib/errno.c                 0x00000000   Number         0  errno.o ABSOLUTE
    ../clib/microlib/init/entry.s            0x00000000   Number         0  entry9b.o ABSOLUTE
    ../clib/microlib/init/entry.s            0x00000000   Number         0  entry2.o ABSOLUTE
    ../clib/microlib/init/entry.s            0x00000000   Number         0  entry7b.o ABSOLUTE
    ../clib/microlib/init/entry.s            0x00000000   Number         0  entry10a.o ABSOLUTE
    ../clib/microlib/init/entry.s            0x00000000   Number         0  entry7a.o ABSOLUTE
    ../clib/microlib/init/entry.s            0x00000000   Number         0  entry8b.o ABSOLUTE
    ../clib/microlib/init/entry.s            0x00000000   Number         0  entry8a.o ABSOLUTE
    ../clib/microlib/init/entry.s            0x00000000   Number         0  entry9a.o ABSOLUTE
    ../clib/microlib/init/entry.s            0x00000000   Number         0  entry10b.o ABSOLUTE
    ../clib/microlib/init/entry.s            0x00000000   Number         0  entry11a.o ABSOLUTE
    ../clib/microlib/init/entry.s            0x00000000   Number         0  entry.o ABSOLUTE
    ../clib/microlib/init/entry.s            0x00000000   Number         0  entry5.o ABSOLUTE
    ../clib/microlib/init/entry.s            0x00000000   Number         0  entry11b.o ABSOLUTE
    ../clib/microlib/longlong.c              0x00000000   Number         0  llshl.o ABSOLUTE
    ../clib/microlib/longlong.c              0x00000000   Number         0  llsshr.o ABSOLUTE
    ../clib/microlib/longlong.c              0x00000000   Number         0  llushr.o ABSOLUTE
    ../clib/microlib/malloc/malloc.c         0x00000000   Number         0  mallocra.o ABSOLUTE
    ../clib/microlib/malloc/malloc.c         0x00000000   Number         0  malloc.o ABSOLUTE
    ../clib/microlib/malloc/malloc.c         0x00000000   Number         0  malloca.o ABSOLUTE
    ../clib/microlib/malloc/malloc.c         0x00000000   Number         0  mallocr.o ABSOLUTE
    ../clib/microlib/malloc/mvars.c          0x00000000   Number         0  mvars.o ABSOLUTE
    ../clib/microlib/printf/printf.c         0x00000000   Number         0  printf2.o ABSOLUTE
    ../clib/microlib/printf/printf.c         0x00000000   Number         0  printf6.o ABSOLUTE
    ../clib/microlib/printf/printf.c         0x00000000   Number         0  printf5.o ABSOLUTE
    ../clib/microlib/printf/printf.c         0x00000000   Number         0  printf4.o ABSOLUTE
    ../clib/microlib/printf/printf.c         0x00000000   Number         0  printf7.o ABSOLUTE
    ../clib/microlib/printf/printf.c         0x00000000   Number         0  printf8.o ABSOLUTE
    ../clib/microlib/printf/printf.c         0x00000000   Number         0  printfb.o ABSOLUTE
    ../clib/microlib/printf/printf.c         0x00000000   Number         0  printf3.o ABSOLUTE
    ../clib/microlib/printf/printf.c         0x00000000   Number         0  printfa.o ABSOLUTE
    ../clib/microlib/printf/printf.c         0x00000000   Number         0  printf1.o ABSOLUTE
    ../clib/microlib/printf/printf.c         0x00000000   Number         0  printf0.o ABSOLUTE
    ../clib/microlib/printf/stubs.s          0x00000000   Number         0  stubs.o ABSOLUTE
    ../clib/microlib/stdio/streams.c         0x00000000   Number         0  stdout.o ABSOLUTE
    ../clib/microlib/string/memcpy.c         0x00000000   Number         0  memcpyb.o ABSOLUTE
    ../clib/microlib/string/memcpy.c         0x00000000   Number         0  memcpya.o ABSOLUTE
    ../clib/microlib/string/memset.c         0x00000000   Number         0  memseta.o ABSOLUTE
    ../clib/microlib/string/strlen.c         0x00000000   Number         0  strlen.o ABSOLUTE
    ../clib/microlib/stubs.s                 0x00000000   Number         0  iusefp.o ABSOLUTE
    ../fplib/microlib/d2f.c                  0x00000000   Number         0  d2f.o ABSOLUTE
    ../fplib/microlib/f2d.c                  0x00000000   Number         0  f2d.o ABSOLUTE
    ../fplib/microlib/fpadd.c                0x00000000   Number         0  dadd.o ABSOLUTE
    ../fplib/microlib/fpdiv.c                0x00000000   Number         0  ddiv.o ABSOLUTE
    ../fplib/microlib/fpepilogue.c           0x00000000   Number         0  depilogue.o ABSOLUTE
    ../fplib/microlib/fpepilogue.c           0x00000000   Number         0  fepilogue.o ABSOLUTE
    ../fplib/microlib/fpfix.c                0x00000000   Number         0  dfixul.o ABSOLUTE
    ../fplib/microlib/fpmul.c                0x00000000   Number         0  dmul.o ABSOLUTE
    ../fplib/microlib/fpneg.c                0x00000000   Number         0  dneg.o ABSOLUTE
    ../fplib/microlib/fpsqrt.c               0x00000000   Number         0  dsqrt.o ABSOLUTE
    ../mathlib/asin.c                        0x00000000   Number         0  asin.o ABSOLUTE
    ../mathlib/asin.c                        0x00000000   Number         0  asin_x.o ABSOLUTE
    ../mathlib/atan.c                        0x00000000   Number         0  atan_x.o ABSOLUTE
    ../mathlib/atan.c                        0x00000000   Number         0  atan.o ABSOLUTE
    ../mathlib/atan2.c                       0x00000000   Number         0  atan2.o ABSOLUTE
    ../mathlib/atan2.c                       0x00000000   Number         0  atan2_x.o ABSOLUTE
    ../mathlib/dunder.c                      0x00000000   Number         0  dunder.o ABSOLUTE
    ../mathlib/fabs.c                        0x00000000   Number         0  fabs.o ABSOLUTE
    ../mathlib/fpclassify.c                  0x00000000   Number         0  fpclassify.o ABSOLUTE
    ../mathlib/poly.c                        0x00000000   Number         0  poly.o ABSOLUTE
    ../mathlib/qnan.c                        0x00000000   Number         0  qnan.o ABSOLUTE
    ../mathlib/sqrt.c                        0x00000000   Number         0  sqrt_x.o ABSOLUTE
    ../mathlib/sqrt.c                        0x00000000   Number         0  sqrt.o ABSOLUTE
    ..\..\app\src\act.c                      0x00000000   Number         0  act.o ABSOLUTE
    ..\..\app\src\app.c                      0x00000000   Number         0  app.o ABSOLUTE
    ..\..\app\src\can.c                      0x00000000   Number         0  can.o ABSOLUTE
    ..\..\app\src\cfg.c                      0x00000000   Number         0  cfg.o ABSOLUTE
    ..\..\app\src\clk.c                      0x00000000   Number         0  clk.o ABSOLUTE
    ..\..\app\src\cmd.c                      0x00000000   Number         0  cmd.o ABSOLUTE
    ..\..\app\src\com.c                      0x00000000   Number         0  com.o ABSOLUTE
    ..\..\app\src\ctl.c                      0x00000000   Number         0  ctl.o ABSOLUTE
    ..\..\app\src\dbg.c                      0x00000000   Number         0  dbg.o ABSOLUTE
    ..\..\app\src\dci.c                      0x00000000   Number         0  dci.o ABSOLUTE
    ..\..\app\src\fos.c                      0x00000000   Number         0  fos.o ABSOLUTE
    ..\..\app\src\fun.c                      0x00000000   Number         0  fun.o ABSOLUTE
    ..\..\app\src\hci.c                      0x00000000   Number         0  hci.o ABSOLUTE
    ..\..\app\src\ini.c                      0x00000000   Number         0  ini.o ABSOLUTE
    ..\..\app\src\ios.c                      0x00000000   Number         0  ios.o ABSOLUTE
    ..\..\app\src\mec.c                      0x00000000   Number         0  mec.o ABSOLUTE
    ..\..\app\src\odo.c                      0x00000000   Number         0  odo.o ABSOLUTE
    ..\..\app\src\rci.c                      0x00000000   Number         0  rci.o ABSOLUTE
    ..\..\app\src\sys.c                      0x00000000   Number         0  sys.o ABSOLUTE
    ..\..\app\src\upd.c                      0x00000000   Number         0  upd.o ABSOLUTE
    ..\..\app\src\wdg.c                      0x00000000   Number         0  wdg.o ABSOLUTE
    ..\..\app\src\wsm.c                      0x00000000   Number         0  wsm.o ABSOLUTE
    ..\..\asp\src\ahrs.c                     0x00000000   Number         0  ahrs.o ABSOLUTE
    ..\..\asp\src\cbus.c                     0x00000000   Number         0  cbus.o ABSOLUTE
    ..\..\asp\src\crc16.c                    0x00000000   Number         0  crc16.o ABSOLUTE
    ..\..\asp\src\dbus.c                     0x00000000   Number         0  dbus.o ABSOLUTE
    ..\..\asp\src\ekf.c                      0x00000000   Number         0  ekf.o ABSOLUTE
    ..\..\asp\src\est.c                      0x00000000   Number         0  est.o ABSOLUTE
    ..\..\asp\src\fifo.c                     0x00000000   Number         0  fifo.o ABSOLUTE
    ..\..\asp\src\gdf.c                      0x00000000   Number         0  gdf.o ABSOLUTE
    ..\..\asp\src\hcp.c                      0x00000000   Number         0  hcp.o ABSOLUTE
    ..\..\asp\src\maf.c                      0x00000000   Number         0  maf.o ABSOLUTE
    ..\..\asp\src\mecanum.c                  0x00000000   Number         0  mecanum.o ABSOLUTE
    ..\..\asp\src\msg.c                      0x00000000   Number         0  msg.o ABSOLUTE
    ..\..\asp\src\pid.c                      0x00000000   Number         0  pid.o ABSOLUTE
    ..\..\asp\src\rcp.c                      0x00000000   Number         0  rcp.o ABSOLUTE
    ..\..\asp\src\rmp.c                      0x00000000   Number         0  rmp.o ABSOLUTE
    ..\..\asp\src\stack.c                    0x00000000   Number         0  stack.o ABSOLUTE
    ..\..\bsp\src\bsp.c                      0x00000000   Number         0  bsp.o ABSOLUTE
    ..\..\bsp\src\btm.c                      0x00000000   Number         0  btm.o ABSOLUTE
    ..\..\bsp\src\btn.c                      0x00000000   Number         0  btn.o ABSOLUTE
    ..\..\bsp\src\can1.c                     0x00000000   Number         0  can1.o ABSOLUTE
    ..\..\bsp\src\can2.c                     0x00000000   Number         0  can2.o ABSOLUTE
    ..\..\bsp\src\dbi.c                      0x00000000   Number         0  dbi.o ABSOLUTE
    ..\..\bsp\src\led.c                      0x00000000   Number         0  led.o ABSOLUTE
    ..\..\bsp\src\pwm.c                      0x00000000   Number         0  pwm.o ABSOLUTE
    ..\..\bsp\src\rcv.c                      0x00000000   Number         0  rcv.o ABSOLUTE
    ..\..\bsp\src\stm32util.c                0x00000000   Number         0  stm32util.o ABSOLUTE
    ..\..\bsp\src\tim.c                      0x00000000   Number         0  tim.o ABSOLUTE
    ..\..\bsp\src\tty.c                      0x00000000   Number         0  tty.o ABSOLUTE
    ..\..\drv\src\delay.c                    0x00000000   Number         0  delay.o ABSOLUTE
    ..\..\drv\src\drv.c                      0x00000000   Number         0  drv.o ABSOLUTE
    ..\..\drv\src\flash.c                    0x00000000   Number         0  flash.o ABSOLUTE
    ..\..\drv\src\motor.c                    0x00000000   Number         0  motor.o ABSOLUTE
    ..\..\drv\src\zgyro.c                    0x00000000   Number         0  zgyro.o ABSOLUTE
    ..\..\kos\src\kos.c                      0x00000000   Number         0  kos.o ABSOLUTE
    ..\..\kos\src\sch.c                      0x00000000   Number         0  sch.o ABSOLUTE
    ..\..\srv\src\can_srv.c                  0x00000000   Number         0  can_srv.o ABSOLUTE
    ..\..\srv\src\com_srv.c                  0x00000000   Number         0  com_srv.o ABSOLUTE
    ..\..\srv\src\rcv_srv.c                  0x00000000   Number         0  rcv_srv.o ABSOLUTE
    ..\..\srv\src\srv.c                      0x00000000   Number         0  srv.o ABSOLUTE
    ..\..\srv\src\tim_srv.c                  0x00000000   Number         0  tim_srv.o ABSOLUTE
    ..\..\stl\StdPeriph_Driver\src\misc.c    0x00000000   Number         0  misc.o ABSOLUTE
    ..\..\stl\StdPeriph_Driver\src\stm32f4xx_adc.c 0x00000000   Number         0  stm32f4xx_adc.o ABSOLUTE
    ..\..\stl\StdPeriph_Driver\src\stm32f4xx_can.c 0x00000000   Number         0  stm32f4xx_can.o ABSOLUTE
    ..\..\stl\StdPeriph_Driver\src\stm32f4xx_cec.c 0x00000000   Number         0  stm32f4xx_cec.o ABSOLUTE
    ..\..\stl\StdPeriph_Driver\src\stm32f4xx_crc.c 0x00000000   Number         0  stm32f4xx_crc.o ABSOLUTE
    ..\..\stl\StdPeriph_Driver\src\stm32f4xx_cryp.c 0x00000000   Number         0  stm32f4xx_cryp.o ABSOLUTE
    ..\..\stl\StdPeriph_Driver\src\stm32f4xx_cryp_aes.c 0x00000000   Number         0  stm32f4xx_cryp_aes.o ABSOLUTE
    ..\..\stl\StdPeriph_Driver\src\stm32f4xx_cryp_des.c 0x00000000   Number         0  stm32f4xx_cryp_des.o ABSOLUTE
    ..\..\stl\StdPeriph_Driver\src\stm32f4xx_cryp_tdes.c 0x00000000   Number         0  stm32f4xx_cryp_tdes.o ABSOLUTE
    ..\..\stl\StdPeriph_Driver\src\stm32f4xx_dac.c 0x00000000   Number         0  stm32f4xx_dac.o ABSOLUTE
    ..\..\stl\StdPeriph_Driver\src\stm32f4xx_dbgmcu.c 0x00000000   Number         0  stm32f4xx_dbgmcu.o ABSOLUTE
    ..\..\stl\StdPeriph_Driver\src\stm32f4xx_dcmi.c 0x00000000   Number         0  stm32f4xx_dcmi.o ABSOLUTE
    ..\..\stl\StdPeriph_Driver\src\stm32f4xx_dfsdm.c 0x00000000   Number         0  stm32f4xx_dfsdm.o ABSOLUTE
    ..\..\stl\StdPeriph_Driver\src\stm32f4xx_dma.c 0x00000000   Number         0  stm32f4xx_dma.o ABSOLUTE
    ..\..\stl\StdPeriph_Driver\src\stm32f4xx_dma2d.c 0x00000000   Number         0  stm32f4xx_dma2d.o ABSOLUTE
    ..\..\stl\StdPeriph_Driver\src\stm32f4xx_dsi.c 0x00000000   Number         0  stm32f4xx_dsi.o ABSOLUTE
    ..\..\stl\StdPeriph_Driver\src\stm32f4xx_exti.c 0x00000000   Number         0  stm32f4xx_exti.o ABSOLUTE
    ..\..\stl\StdPeriph_Driver\src\stm32f4xx_flash.c 0x00000000   Number         0  stm32f4xx_flash.o ABSOLUTE
    ..\..\stl\StdPeriph_Driver\src\stm32f4xx_flash_ramfunc.c 0x00000000   Number         0  stm32f4xx_flash_ramfunc.o ABSOLUTE
    ..\..\stl\StdPeriph_Driver\src\stm32f4xx_fmc.c 0x00000000   Number         0  stm32f4xx_fmc.o ABSOLUTE
    ..\..\stl\StdPeriph_Driver\src\stm32f4xx_fmip2c.c 0x00000000   Number         0  stm32f4xx_fmip2c.o ABSOLUTE
    ..\..\stl\StdPeriph_Driver\src\stm32f4xx_fsmc.c 0x00000000   Number         0  stm32f4xx_fsmc.o ABSOLUTE
    ..\..\stl\StdPeriph_Driver\src\stm32f4xx_gpio.c 0x00000000   Number         0  stm32f4xx_gpio.o ABSOLUTE
    ..\..\stl\StdPeriph_Driver\src\stm32f4xx_hash.c 0x00000000   Number         0  stm32f4xx_hash.o ABSOLUTE
    ..\..\stl\StdPeriph_Driver\src\stm32f4xx_hash_md5.c 0x00000000   Number         0  stm32f4xx_hash_md5.o ABSOLUTE
    ..\..\stl\StdPeriph_Driver\src\stm32f4xx_hash_sha1.c 0x00000000   Number         0  stm32f4xx_hash_sha1.o ABSOLUTE
    ..\..\stl\StdPeriph_Driver\src\stm32f4xx_i2c.c 0x00000000   Number         0  stm32f4xx_i2c.o ABSOLUTE
    ..\..\stl\StdPeriph_Driver\src\stm32f4xx_iwdg.c 0x00000000   Number         0  stm32f4xx_iwdg.o ABSOLUTE
    ..\..\stl\StdPeriph_Driver\src\stm32f4xx_lptim.c 0x00000000   Number         0  stm32f4xx_lptim.o ABSOLUTE
    ..\..\stl\StdPeriph_Driver\src\stm32f4xx_ltdc.c 0x00000000   Number         0  stm32f4xx_ltdc.o ABSOLUTE
    ..\..\stl\StdPeriph_Driver\src\stm32f4xx_pwr.c 0x00000000   Number         0  stm32f4xx_pwr.o ABSOLUTE
    ..\..\stl\StdPeriph_Driver\src\stm32f4xx_qspi.c 0x00000000   Number         0  stm32f4xx_qspi.o ABSOLUTE
    ..\..\stl\StdPeriph_Driver\src\stm32f4xx_rcc.c 0x00000000   Number         0  stm32f4xx_rcc.o ABSOLUTE
    ..\..\stl\StdPeriph_Driver\src\stm32f4xx_rng.c 0x00000000   Number         0  stm32f4xx_rng.o ABSOLUTE
    ..\..\stl\StdPeriph_Driver\src\stm32f4xx_rtc.c 0x00000000   Number         0  stm32f4xx_rtc.o ABSOLUTE
    ..\..\stl\StdPeriph_Driver\src\stm32f4xx_sai.c 0x00000000   Number         0  stm32f4xx_sai.o ABSOLUTE
    ..\..\stl\StdPeriph_Driver\src\stm32f4xx_sdio.c 0x00000000   Number         0  stm32f4xx_sdio.o ABSOLUTE
    ..\..\stl\StdPeriph_Driver\src\stm32f4xx_spdifrx.c 0x00000000   Number         0  stm32f4xx_spdifrx.o ABSOLUTE
    ..\..\stl\StdPeriph_Driver\src\stm32f4xx_spi.c 0x00000000   Number         0  stm32f4xx_spi.o ABSOLUTE
    ..\..\stl\StdPeriph_Driver\src\stm32f4xx_syscfg.c 0x00000000   Number         0  stm32f4xx_syscfg.o ABSOLUTE
    ..\..\stl\StdPeriph_Driver\src\stm32f4xx_tim.c 0x00000000   Number         0  stm32f4xx_tim.o ABSOLUTE
    ..\..\stl\StdPeriph_Driver\src\stm32f4xx_usart.c 0x00000000   Number         0  stm32f4xx_usart.o ABSOLUTE
    ..\..\stl\StdPeriph_Driver\src\stm32f4xx_wwdg.c 0x00000000   Number         0  stm32f4xx_wwdg.o ABSOLUTE
    ..\..\stl\src\system_stm32f4xx.c         0x00000000   Number         0  system_stm32f4xx.o ABSOLUTE
    ..\..\usr\src\main.c                     0x00000000   Number         0  main.o ABSOLUTE
    ..\..\usr\src\stm32f4xx_it.c             0x00000000   Number         0  stm32f4xx_it.o ABSOLUTE
    ..\\..\\app\\src\\act.c                  0x00000000   Number         0  act.o ABSOLUTE
    ..\\..\\app\\src\\app.c                  0x00000000   Number         0  app.o ABSOLUTE
    ..\\..\\app\\src\\cfg.c                  0x00000000   Number         0  cfg.o ABSOLUTE
    ..\\..\\app\\src\\clk.c                  0x00000000   Number         0  clk.o ABSOLUTE
    ..\\..\\app\\src\\cmd.c                  0x00000000   Number         0  cmd.o ABSOLUTE
    ..\\..\\app\\src\\com.c                  0x00000000   Number         0  com.o ABSOLUTE
    ..\\..\\app\\src\\ctl.c                  0x00000000   Number         0  ctl.o ABSOLUTE
    ..\\..\\app\\src\\dbg.c                  0x00000000   Number         0  dbg.o ABSOLUTE
    ..\\..\\app\\src\\dci.c                  0x00000000   Number         0  dci.o ABSOLUTE
    ..\\..\\app\\src\\fos.c                  0x00000000   Number         0  fos.o ABSOLUTE
    ..\\..\\app\\src\\hci.c                  0x00000000   Number         0  hci.o ABSOLUTE
    ..\\..\\app\\src\\ios.c                  0x00000000   Number         0  ios.o ABSOLUTE
    ..\\..\\app\\src\\mec.c                  0x00000000   Number         0  mec.o ABSOLUTE
    ..\\..\\app\\src\\odo.c                  0x00000000   Number         0  odo.o ABSOLUTE
    ..\\..\\app\\src\\rci.c                  0x00000000   Number         0  rci.o ABSOLUTE
    ..\\..\\app\\src\\upd.c                  0x00000000   Number         0  upd.o ABSOLUTE
    ..\\..\\app\\src\\wsm.c                  0x00000000   Number         0  wsm.o ABSOLUTE
    ..\\..\\bsp\\src\\bsp.c                  0x00000000   Number         0  bsp.o ABSOLUTE
    ..\\..\\bsp\\src\\btm.c                  0x00000000   Number         0  btm.o ABSOLUTE
    ..\\..\\bsp\\src\\btn.c                  0x00000000   Number         0  btn.o ABSOLUTE
    ..\\..\\bsp\\src\\can1.c                 0x00000000   Number         0  can1.o ABSOLUTE
    ..\\..\\bsp\\src\\can2.c                 0x00000000   Number         0  can2.o ABSOLUTE
    ..\\..\\bsp\\src\\dbi.c                  0x00000000   Number         0  dbi.o ABSOLUTE
    ..\\..\\bsp\\src\\led.c                  0x00000000   Number         0  led.o ABSOLUTE
    ..\\..\\bsp\\src\\pwm.c                  0x00000000   Number         0  pwm.o ABSOLUTE
    ..\\..\\bsp\\src\\rcv.c                  0x00000000   Number         0  rcv.o ABSOLUTE
    ..\\..\\bsp\\src\\stm32util.c            0x00000000   Number         0  stm32util.o ABSOLUTE
    ..\\..\\bsp\\src\\tim.c                  0x00000000   Number         0  tim.o ABSOLUTE
    ..\\..\\bsp\\src\\tty.c                  0x00000000   Number         0  tty.o ABSOLUTE
    ..\\..\\drv\\src\\drv.c                  0x00000000   Number         0  drv.o ABSOLUTE
    ..\\..\\drv\\src\\flash.c                0x00000000   Number         0  flash.o ABSOLUTE
    ..\\..\\drv\\src\\motor.c                0x00000000   Number         0  motor.o ABSOLUTE
    ..\\..\\drv\\src\\zgyro.c                0x00000000   Number         0  zgyro.o ABSOLUTE
    ..\\..\\kos\\src\\kos.c                  0x00000000   Number         0  kos.o ABSOLUTE
    ..\\..\\kos\\src\\sch.c                  0x00000000   Number         0  sch.o ABSOLUTE
    ..\\..\\srv\\src\\com_srv.c              0x00000000   Number         0  com_srv.o ABSOLUTE
    ..\\..\\srv\\src\\rcv_srv.c              0x00000000   Number         0  rcv_srv.o ABSOLUTE
    ..\\..\\srv\\src\\srv.c                  0x00000000   Number         0  srv.o ABSOLUTE
    ..\\..\\srv\\src\\tim_srv.c              0x00000000   Number         0  tim_srv.o ABSOLUTE
    ..\\..\\stl\\StdPeriph_Driver\\src\\misc.c 0x00000000   Number         0  misc.o ABSOLUTE
    ..\\..\\stl\\StdPeriph_Driver\\src\\stm32f4xx_adc.c 0x00000000   Number         0  stm32f4xx_adc.o ABSOLUTE
    ..\\..\\stl\\StdPeriph_Driver\\src\\stm32f4xx_can.c 0x00000000   Number         0  stm32f4xx_can.o ABSOLUTE
    ..\\..\\stl\\StdPeriph_Driver\\src\\stm32f4xx_cec.c 0x00000000   Number         0  stm32f4xx_cec.o ABSOLUTE
    ..\\..\\stl\\StdPeriph_Driver\\src\\stm32f4xx_crc.c 0x00000000   Number         0  stm32f4xx_crc.o ABSOLUTE
    ..\\..\\stl\\StdPeriph_Driver\\src\\stm32f4xx_cryp.c 0x00000000   Number         0  stm32f4xx_cryp.o ABSOLUTE
    ..\\..\\stl\\StdPeriph_Driver\\src\\stm32f4xx_cryp_aes.c 0x00000000   Number         0  stm32f4xx_cryp_aes.o ABSOLUTE
    ..\\..\\stl\\StdPeriph_Driver\\src\\stm32f4xx_cryp_des.c 0x00000000   Number         0  stm32f4xx_cryp_des.o ABSOLUTE
    ..\\..\\stl\\StdPeriph_Driver\\src\\stm32f4xx_cryp_tdes.c 0x00000000   Number         0  stm32f4xx_cryp_tdes.o ABSOLUTE
    ..\\..\\stl\\StdPeriph_Driver\\src\\stm32f4xx_dac.c 0x00000000   Number         0  stm32f4xx_dac.o ABSOLUTE
    ..\\..\\stl\\StdPeriph_Driver\\src\\stm32f4xx_dbgmcu.c 0x00000000   Number         0  stm32f4xx_dbgmcu.o ABSOLUTE
    ..\\..\\stl\\StdPeriph_Driver\\src\\stm32f4xx_dcmi.c 0x00000000   Number         0  stm32f4xx_dcmi.o ABSOLUTE
    ..\\..\\stl\\StdPeriph_Driver\\src\\stm32f4xx_dfsdm.c 0x00000000   Number         0  stm32f4xx_dfsdm.o ABSOLUTE
    ..\\..\\stl\\StdPeriph_Driver\\src\\stm32f4xx_dma.c 0x00000000   Number         0  stm32f4xx_dma.o ABSOLUTE
    ..\\..\\stl\\StdPeriph_Driver\\src\\stm32f4xx_dma2d.c 0x00000000   Number         0  stm32f4xx_dma2d.o ABSOLUTE
    ..\\..\\stl\\StdPeriph_Driver\\src\\stm32f4xx_dsi.c 0x00000000   Number         0  stm32f4xx_dsi.o ABSOLUTE
    ..\\..\\stl\\StdPeriph_Driver\\src\\stm32f4xx_exti.c 0x00000000   Number         0  stm32f4xx_exti.o ABSOLUTE
    ..\\..\\stl\\StdPeriph_Driver\\src\\stm32f4xx_flash.c 0x00000000   Number         0  stm32f4xx_flash.o ABSOLUTE
    ..\\..\\stl\\StdPeriph_Driver\\src\\stm32f4xx_flash_ramfunc.c 0x00000000   Number         0  stm32f4xx_flash_ramfunc.o ABSOLUTE
    ..\\..\\stl\\StdPeriph_Driver\\src\\stm32f4xx_fmc.c 0x00000000   Number         0  stm32f4xx_fmc.o ABSOLUTE
    ..\\..\\stl\\StdPeriph_Driver\\src\\stm32f4xx_fmip2c.c 0x00000000   Number         0  stm32f4xx_fmip2c.o ABSOLUTE
    ..\\..\\stl\\StdPeriph_Driver\\src\\stm32f4xx_fsmc.c 0x00000000   Number         0  stm32f4xx_fsmc.o ABSOLUTE
    ..\\..\\stl\\StdPeriph_Driver\\src\\stm32f4xx_gpio.c 0x00000000   Number         0  stm32f4xx_gpio.o ABSOLUTE
    ..\\..\\stl\\StdPeriph_Driver\\src\\stm32f4xx_hash.c 0x00000000   Number         0  stm32f4xx_hash.o ABSOLUTE
    ..\\..\\stl\\StdPeriph_Driver\\src\\stm32f4xx_hash_md5.c 0x00000000   Number         0  stm32f4xx_hash_md5.o ABSOLUTE
    ..\\..\\stl\\StdPeriph_Driver\\src\\stm32f4xx_hash_sha1.c 0x00000000   Number         0  stm32f4xx_hash_sha1.o ABSOLUTE
    ..\\..\\stl\\StdPeriph_Driver\\src\\stm32f4xx_i2c.c 0x00000000   Number         0  stm32f4xx_i2c.o ABSOLUTE
    ..\\..\\stl\\StdPeriph_Driver\\src\\stm32f4xx_iwdg.c 0x00000000   Number         0  stm32f4xx_iwdg.o ABSOLUTE
    ..\\..\\stl\\StdPeriph_Driver\\src\\stm32f4xx_lptim.c 0x00000000   Number         0  stm32f4xx_lptim.o ABSOLUTE
    ..\\..\\stl\\StdPeriph_Driver\\src\\stm32f4xx_ltdc.c 0x00000000   Number         0  stm32f4xx_ltdc.o ABSOLUTE
    ..\\..\\stl\\StdPeriph_Driver\\src\\stm32f4xx_pwr.c 0x00000000   Number         0  stm32f4xx_pwr.o ABSOLUTE
    ..\\..\\stl\\StdPeriph_Driver\\src\\stm32f4xx_qspi.c 0x00000000   Number         0  stm32f4xx_qspi.o ABSOLUTE
    ..\\..\\stl\\StdPeriph_Driver\\src\\stm32f4xx_rcc.c 0x00000000   Number         0  stm32f4xx_rcc.o ABSOLUTE
    ..\\..\\stl\\StdPeriph_Driver\\src\\stm32f4xx_rng.c 0x00000000   Number         0  stm32f4xx_rng.o ABSOLUTE
    ..\\..\\stl\\StdPeriph_Driver\\src\\stm32f4xx_rtc.c 0x00000000   Number         0  stm32f4xx_rtc.o ABSOLUTE
    ..\\..\\stl\\StdPeriph_Driver\\src\\stm32f4xx_sai.c 0x00000000   Number         0  stm32f4xx_sai.o ABSOLUTE
    ..\\..\\stl\\StdPeriph_Driver\\src\\stm32f4xx_sdio.c 0x00000000   Number         0  stm32f4xx_sdio.o ABSOLUTE
    ..\\..\\stl\\StdPeriph_Driver\\src\\stm32f4xx_spdifrx.c 0x00000000   Number         0  stm32f4xx_spdifrx.o ABSOLUTE
    ..\\..\\stl\\StdPeriph_Driver\\src\\stm32f4xx_spi.c 0x00000000   Number         0  stm32f4xx_spi.o ABSOLUTE
    ..\\..\\stl\\StdPeriph_Driver\\src\\stm32f4xx_syscfg.c 0x00000000   Number         0  stm32f4xx_syscfg.o ABSOLUTE
    ..\\..\\stl\\StdPeriph_Driver\\src\\stm32f4xx_tim.c 0x00000000   Number         0  stm32f4xx_tim.o ABSOLUTE
    ..\\..\\stl\\StdPeriph_Driver\\src\\stm32f4xx_usart.c 0x00000000   Number         0  stm32f4xx_usart.o ABSOLUTE
    ..\\..\\stl\\StdPeriph_Driver\\src\\stm32f4xx_wwdg.c 0x00000000   Number         0  stm32f4xx_wwdg.o ABSOLUTE
    ..\\..\\stl\\src\\arm\\startup_stm32f427xx.s 0x00000000   Number         0  startup_stm32f427xx.o ABSOLUTE
    ..\\..\\stl\\src\\system_stm32f4xx.c     0x00000000   Number         0  system_stm32f4xx.o ABSOLUTE
    ..\\..\\usr\\src\\main.c                 0x00000000   Number         0  main.o ABSOLUTE
    ..\\..\\usr\\src\\stm32f4xx_it.c         0x00000000   Number         0  stm32f4xx_it.o ABSOLUTE
    cdcmple.s                                0x00000000   Number         0  cdcmple.o ABSOLUTE
    cdrcmple.s                               0x00000000   Number         0  cdrcmple.o ABSOLUTE
    dc.s                                     0x00000000   Number         0  dc.o ABSOLUTE
    handlers.s                               0x00000000   Number         0  handlers.o ABSOLUTE
    init.s                                   0x00000000   Number         0  init.o ABSOLUTE
    RESET                                    0x08000000   Section      428  startup_stm32f427xx.o(RESET)
    .ARM.Collect$$$$00000000                 0x080001ac   Section        0  entry.o(.ARM.Collect$$$$00000000)
    .ARM.Collect$$$$00000001                 0x080001ac   Section        4  entry2.o(.ARM.Collect$$$$00000001)
    .ARM.Collect$$$$00000004                 0x080001b0   Section        4  entry5.o(.ARM.Collect$$$$00000004)
    .ARM.Collect$$$$00000008                 0x080001b4   Section        0  entry7b.o(.ARM.Collect$$$$00000008)
    .ARM.Collect$$$$0000000A                 0x080001b4   Section        0  entry8b.o(.ARM.Collect$$$$0000000A)
    .ARM.Collect$$$$0000000B                 0x080001b4   Section        8  entry9a.o(.ARM.Collect$$$$0000000B)
    .ARM.Collect$$$$0000000D                 0x080001bc   Section        0  entry10a.o(.ARM.Collect$$$$0000000D)
    .ARM.Collect$$$$0000000F                 0x080001bc   Section        0  entry11a.o(.ARM.Collect$$$$0000000F)
    .ARM.Collect$$$$00002712                 0x080001bc   Section        4  entry2.o(.ARM.Collect$$$$00002712)
    __lit__00000000                          0x080001bc   Data           4  entry2.o(.ARM.Collect$$$$00002712)
    .text                                    0x080001c0   Section       36  startup_stm32f427xx.o(.text)
    $v0                                      0x080001c0   Number         0  startup_stm32f427xx.o(.text)
    .text                                    0x080001e4   Section        0  memcpya.o(.text)
    .text                                    0x08000208   Section        0  memseta.o(.text)
    .text                                    0x0800022c   Section        0  dmul.o(.text)
    .text                                    0x08000310   Section        0  ddiv.o(.text)
    .text                                    0x080003ee   Section        0  uidiv.o(.text)
    .text                                    0x0800041a   Section        0  uldiv.o(.text)
    .text                                    0x0800047c   Section        0  depilogue.o(.text)
    .text                                    0x0800047c   Section        0  iusefp.o(.text)
    .text                                    0x08000536   Section        0  dadd.o(.text)
    .text                                    0x08000684   Section        0  dfixul.o(.text)
    .text                                    0x080006b4   Section       48  cdrcmple.o(.text)
    .text                                    0x080006e4   Section       36  init.o(.text)
    .text                                    0x08000708   Section        0  llshl.o(.text)
    .text                                    0x08000726   Section        0  llushr.o(.text)
    .text                                    0x08000746   Section        0  llsshr.o(.text)
    .text                                    0x0800076a   Section        0  __dczerorl2.o(.text)
    i.Act_Init                               0x080007c0   Section        0  act.o(i.Act_Init)
    i.Act_Proc                               0x080007e8   Section        0  act.o(i.Act_Proc)
    i.App_Init                               0x0800087c   Section        0  app.o(i.App_Init)
    i.App_Proc                               0x080008a6   Section        0  app.o(i.App_Proc)
    i.Bsp_Config                             0x080008bc   Section        0  bsp.o(i.Bsp_Config)
    i.BtmRxCallback                          0x08000900   Section        0  com_srv.o(i.BtmRxCallback)
    i.Btm_Config                             0x08000904   Section        0  btm.o(i.Btm_Config)
    i.Btm_Proc                               0x08000974   Section        0  com.o(i.Btm_Proc)
    i.Btm_ReadByte                           0x0800097c   Section        0  btm.o(i.Btm_ReadByte)
    i.Btn_Config                             0x080009c0   Section        0  btn.o(i.Btn_Config)
    i.BusFault_Handler                       0x080009cc   Section        0  stm32f4xx_it.o(i.BusFault_Handler)
    i.CAN1_RX0_IRQHandler                    0x080009d0   Section        0  can1.o(i.CAN1_RX0_IRQHandler)
    i.CAN1_TX_IRQHandler                     0x08000a14   Section        0  can1.o(i.CAN1_TX_IRQHandler)
    i.CAN2_RX0_IRQHandler                    0x08000a38   Section        0  can2.o(i.CAN2_RX0_IRQHandler)
    i.CAN2_TX_IRQHandler                     0x08000a7c   Section        0  can2.o(i.CAN2_TX_IRQHandler)
    i.CAN_ClearFlag                          0x08000aa0   Section        0  stm32f4xx_can.o(i.CAN_ClearFlag)
    i.CAN_ClearITPendingBit                  0x08000ad0   Section        0  stm32f4xx_can.o(i.CAN_ClearITPendingBit)
    i.CAN_Config                             0x08000b48   Section        0  stm32util.o(i.CAN_Config)
    i.CAN_FilterInit                         0x08000bb4   Section        0  stm32f4xx_can.o(i.CAN_FilterInit)
    i.CAN_Filter_Config                      0x08000c80   Section        0  stm32util.o(i.CAN_Filter_Config)
    i.CAN_GetITStatus                        0x08000cb8   Section        0  stm32f4xx_can.o(i.CAN_GetITStatus)
    i.CAN_ITConfig                           0x08000d60   Section        0  stm32f4xx_can.o(i.CAN_ITConfig)
    i.CAN_Init                               0x08000d70   Section        0  stm32f4xx_can.o(i.CAN_Init)
    i.CAN_Receive                            0x08000e58   Section        0  stm32f4xx_can.o(i.CAN_Receive)
    i.CAN_Transmit                           0x08000ee8   Section        0  stm32f4xx_can.o(i.CAN_Transmit)
    i.CM_Cmd                                 0x08000f8c   Section        0  motor.o(i.CM_Cmd)
    i.CS_Set                                 0x08000fda   Section        0  sys.o(i.CS_Set)
    i.Can1RxCallback                         0x08000fe0   Section        0  can_srv.o(i.Can1RxCallback)
    i.Can1_Config                            0x08000fe4   Section        0  can1.o(i.Can1_Config)
    i.Can2RxCallback                         0x08001054   Section        0  can_srv.o(i.Can2RxCallback)
    i.Can2_Config                            0x08001058   Section        0  can2.o(i.Can2_Config)
    i.Can_Init                               0x080010c8   Section        0  can.o(i.Can_Init)
    i.Can_Proc                               0x080010f8   Section        0  can.o(i.Can_Proc)
    i.Cfg_GetFlag                            0x0800119c   Section        0  cfg.o(i.Cfg_GetFlag)
    i.Cfg_Init                               0x080011a8   Section        0  cfg.o(i.Cfg_Init)
    i.Cfg_Load                               0x08001284   Section        0  cfg.o(i.Cfg_Load)
    i.ChassisVelocityControl                 0x0800128c   Section        0  ctl.o(i.ChassisVelocityControl)
    ChassisVelocityControl                   0x0800128d   Thumb Code   160  ctl.o(i.ChassisVelocityControl)
    i.CheckITStatus                          0x0800133c   Section        0  stm32f4xx_can.o(i.CheckITStatus)
    CheckITStatus                            0x0800133d   Thumb Code    12  stm32f4xx_can.o(i.CheckITStatus)
    i.Clk_GetMsTick                          0x08001348   Section        0  clk.o(i.Clk_GetMsTick)
    i.Clk_Init                               0x0800135c   Section        0  clk.o(i.Clk_Init)
    i.Clk_Spin                               0x08001368   Section        0  clk.o(i.Clk_Spin)
    i.Cmd_Init                               0x08001378   Section        0  cmd.o(i.Cmd_Init)
    i.Cmd_Proc                               0x080013cc   Section        0  cmd.o(i.Cmd_Proc)
    i.Com_Init                               0x0800145c   Section        0  com.o(i.Com_Init)
    i.Ctl_Init                               0x08001460   Section        0  ctl.o(i.Ctl_Init)
    i.Ctl_Proc                               0x08001514   Section        0  ctl.o(i.Ctl_Proc)
    i.DBUS_Rst                               0x0800153c   Section        0  dbus.o(i.DBUS_Rst)
    i.DMA_Cmd                                0x08001550   Section        0  stm32f4xx_dma.o(i.DMA_Cmd)
    i.DMA_Config                             0x08001564   Section        0  stm32util.o(i.DMA_Config)
    i.DMA_DoubleBufferModeCmd                0x080015d0   Section        0  stm32f4xx_dma.o(i.DMA_DoubleBufferModeCmd)
    i.DMA_DoubleBufferModeConfig             0x080015e4   Section        0  stm32f4xx_dma.o(i.DMA_DoubleBufferModeConfig)
    i.DMA_GetCurrDataCounter                 0x080015fa   Section        0  stm32f4xx_dma.o(i.DMA_GetCurrDataCounter)
    i.DMA_GetCurrentMemoryTarget             0x08001600   Section        0  stm32f4xx_dma.o(i.DMA_GetCurrentMemoryTarget)
    i.DMA_Init                               0x08001610   Section        0  stm32f4xx_dma.o(i.DMA_Init)
    i.DbiRxCallback                          0x08001664   Section        0  com_srv.o(i.DbiRxCallback)
    i.Dbi_Config                             0x08001668   Section        0  dbi.o(i.Dbi_Config)
    i.Dbi_Proc                               0x080016d8   Section        0  com.o(i.Dbi_Proc)
    i.Dbi_ReadByte                           0x080016e0   Section        0  dbi.o(i.Dbi_ReadByte)
    i.Dci_Init                               0x08001724   Section        0  dci.o(i.Dci_Init)
    i.DebugMon_Handler                       0x0800173c   Section        0  stm32f4xx_it.o(i.DebugMon_Handler)
    i.Ekf_Init                               0x0800173e   Section        0  ekf.o(i.Ekf_Init)
    i.Ekf_Proc                               0x08001746   Section        0  ekf.o(i.Ekf_Proc)
    i.Ekf_Reset                              0x08001790   Section        0  ekf.o(i.Ekf_Reset)
    i.Ekf_SetE                               0x080017ac   Section        0  ekf.o(i.Ekf_SetE)
    i.FIFO_Flush                             0x080017b2   Section        0  fifo.o(i.FIFO_Flush)
    i.FIFO_Init                              0x080017c8   Section        0  fifo.o(i.FIFO_Init)
    i.FIFO_IsEmpty                           0x080017d0   Section        0  fifo.o(i.FIFO_IsEmpty)
    i.FIFO_IsFull                            0x080017dc   Section        0  fifo.o(i.FIFO_IsFull)
    i.FIFO_Pop                               0x080017ec   Section        0  fifo.o(i.FIFO_Pop)
    i.FIFO_Push                              0x08001820   Section        0  fifo.o(i.FIFO_Push)
    i.FS_Clr                                 0x0800185a   Section        0  sys.o(i.FS_Clr)
    i.FS_Cpy                                 0x0800185e   Section        0  sys.o(i.FS_Cpy)
    i.FS_Det                                 0x08001862   Section        0  sys.o(i.FS_Det)
    i.FS_Get                                 0x08001866   Section        0  sys.o(i.FS_Get)
    i.Flag_Clr                               0x0800186a   Section        0  fun.o(i.Flag_Clr)
    i.Flag_Cpy                               0x08001872   Section        0  fun.o(i.Flag_Cpy)
    i.Flag_Det                               0x08001898   Section        0  fun.o(i.Flag_Det)
    i.Flag_Get                               0x080018a6   Section        0  fun.o(i.Flag_Get)
    i.Flash_Read                             0x080018ac   Section        0  flash.o(i.Flash_Read)
    i.Fos_Read                               0x080018c4   Section        0  fos.o(i.Fos_Read)
    i.GM_Cmd                                 0x080018d4   Section        0  motor.o(i.GM_Cmd)
    i.GPIO_AF                                0x0800191c   Section        0  stm32util.o(i.GPIO_AF)
    i.GPIO_Config                            0x08001944   Section        0  stm32util.o(i.GPIO_Config)
    i.GPIO_In                                0x08001a5c   Section        0  stm32util.o(i.GPIO_In)
    i.GPIO_Init                              0x08001a6c   Section        0  stm32f4xx_gpio.o(i.GPIO_Init)
    i.GPIO_Out                               0x08001b0e   Section        0  stm32util.o(i.GPIO_Out)
    i.GPIO_PinAFConfig                       0x08001b20   Section        0  stm32f4xx_gpio.o(i.GPIO_PinAFConfig)
    i.GPIO_ReadOutputDataBit                 0x08001b40   Section        0  stm32f4xx_gpio.o(i.GPIO_ReadOutputDataBit)
    i.GPIO_ResetBits                         0x08001b4e   Section        0  stm32f4xx_gpio.o(i.GPIO_ResetBits)
    i.GPIO_SetBits                           0x08001b52   Section        0  stm32f4xx_gpio.o(i.GPIO_SetBits)
    i.HCP_Rst                                0x08001b56   Section        0  hcp.o(i.HCP_Rst)
    i.HardFault_Handler                      0x08001b72   Section        0  stm32f4xx_it.o(i.HardFault_Handler)
    i.Hci_Init                               0x08001b74   Section        0  hci.o(i.Hci_Init)
    i.Ini_Check                              0x08001bcc   Section        0  ini.o(i.Ini_Check)
    Ini_Check                                0x08001bcd   Thumb Code     8  ini.o(i.Ini_Check)
    i.Ini_GetFlag                            0x08001bd8   Section        0  ini.o(i.Ini_GetFlag)
    i.Ini_Init                               0x08001be4   Section        0  ini.o(i.Ini_Init)
    i.Ini_Proc                               0x08001bf0   Section        0  ini.o(i.Ini_Proc)
    i.Ios_GetByte                            0x08001c60   Section        0  ios.o(i.Ios_GetByte)
    i.Ios_Init                               0x08001c98   Section        0  ios.o(i.Ios_Init)
    i.Ios_PutByte                            0x08001cb4   Section        0  ios.o(i.Ios_PutByte)
    i.Ios_SetIn                              0x08001cd4   Section        0  ios.o(i.Ios_SetIn)
    i.Ios_SetOut                             0x08001ce4   Section        0  ios.o(i.Ios_SetOut)
    i.KOS_Boot                               0x08001cf4   Section        0  kos.o(i.KOS_Boot)
    i.Led_Config                             0x08001d14   Section        0  led.o(i.Led_Config)
    i.MS_Set                                 0x08001d44   Section        0  sys.o(i.MS_Set)
    i.Maf_Init                               0x08001d4a   Section        0  maf.o(i.Maf_Init)
    i.Maf_Reset                              0x08001d54   Section        0  maf.o(i.Maf_Reset)
    i.Mec_Config                             0x08001d74   Section        0  mec.o(i.Mec_Config)
    i.Mec_Decomp                             0x08001d80   Section        0  mec.o(i.Mec_Decomp)
    i.Mec_Init                               0x08001d90   Section        0  mec.o(i.Mec_Init)
    i.Mec_Synthe                             0x08001da0   Section        0  mec.o(i.Mec_Synthe)
    i.Mecanum_Config                         0x08001db0   Section        0  mecanum.o(i.Mecanum_Config)
    i.Mecanum_Decomp                         0x08001de2   Section        0  mecanum.o(i.Mecanum_Decomp)
    i.Mecanum_Synthe                         0x08001e70   Section        0  mecanum.o(i.Mecanum_Synthe)
    i.MemManage_Handler                      0x08001ee2   Section        0  stm32f4xx_it.o(i.MemManage_Handler)
    i.Motor_Process                          0x08001ee4   Section        0  can.o(i.Motor_Process)
    i.Motor_Ready                            0x08002040   Section        0  can.o(i.Motor_Ready)
    i.Motor_Reset                            0x08002050   Section        0  can.o(i.Motor_Reset)
    i.NMI_Handler                            0x080020a0   Section        0  stm32f4xx_it.o(i.NMI_Handler)
    i.NVIC_Config                            0x080020a2   Section        0  stm32util.o(i.NVIC_Config)
    i.NVIC_Init                              0x080020c0   Section        0  misc.o(i.NVIC_Init)
    i.NVIC_PriorityGroupConfig               0x08002124   Section        0  misc.o(i.NVIC_PriorityGroupConfig)
    i.Odo_Init                               0x08002138   Section        0  odo.o(i.Odo_Init)
    i.Odo_Proc                               0x080021d0   Section        0  odo.o(i.Odo_Proc)
    i.PID_Calc                               0x080022b0   Section        0  pid.o(i.PID_Calc)
    i.PID_Config                             0x08002390   Section        0  pid.o(i.PID_Config)
    i.PID_Init                               0x08002398   Section        0  ctl.o(i.PID_Init)
    PID_Init                                 0x08002399   Thumb Code    10  ctl.o(i.PID_Init)
    i.PID_Reset                              0x080023a8   Section        0  pid.o(i.PID_Reset)
    i.PWM_Bind                               0x080023bc   Section        0  stm32util.o(i.PWM_Bind)
    i.PendSV_Handler                         0x08003900   Section        0  stm32f4xx_it.o(i.PendSV_Handler)
    i.Pwm_Config                             0x08003904   Section        0  pwm.o(i.Pwm_Config)
    i.RCC_AHB1PeriphClockCmd                 0x08003950   Section        0  stm32f4xx_rcc.o(i.RCC_AHB1PeriphClockCmd)
    i.RCC_APB1PeriphClockCmd                 0x08003968   Section        0  stm32f4xx_rcc.o(i.RCC_APB1PeriphClockCmd)
    i.RCC_APB2PeriphClockCmd                 0x08003980   Section        0  stm32f4xx_rcc.o(i.RCC_APB2PeriphClockCmd)
    i.RCC_GetClocksFreq                      0x08003998   Section        0  stm32f4xx_rcc.o(i.RCC_GetClocksFreq)
    i.RCP_Rst                                0x08003a2c   Section        0  rcp.o(i.RCP_Rst)
    i.Rci_Init                               0x08003a54   Section        0  rci.o(i.Rci_Init)
    i.RcvCallback                            0x08003a7c   Section        0  rcv_srv.o(i.RcvCallback)
    i.Rcv_Config                             0x08003a80   Section        0  rcv.o(i.Rcv_Config)
    i.Rmp_Calc                               0x08003b14   Section        0  rmp.o(i.Rmp_Calc)
    i.Rmp_Config                             0x08003b3c   Section        0  rmp.o(i.Rmp_Config)
    i.Rmp_Init                               0x08003b40   Section        0  ctl.o(i.Rmp_Init)
    Rmp_Init                                 0x08003b41   Thumb Code    10  ctl.o(i.Rmp_Init)
    i.Rmp_Reset                              0x08003b50   Section        0  rmp.o(i.Rmp_Reset)
    i.SVC_Handler                            0x08003b56   Section        0  stm32f4xx_it.o(i.SVC_Handler)
    i.Sch_Arrange                            0x08003b58   Section        0  sch.o(i.Sch_Arrange)
    i.SetSysClock                            0x08003b98   Section        0  system_stm32f4xx.o(i.SetSysClock)
    SetSysClock                              0x08003b99   Thumb Code   190  system_stm32f4xx.o(i.SetSysClock)
    i.SyncTimCallback                        0x08003c68   Section        0  tim_srv.o(i.SyncTimCallback)
    i.SyncTim_Config                         0x08003c84   Section        0  tim.o(i.SyncTim_Config)
    i.SyncTim_Start                          0x08003cb0   Section        0  tim.o(i.SyncTim_Start)
    i.SystemInit                             0x08003cd8   Section        0  system_stm32f4xx.o(i.SystemInit)
    i.TIM2_IRQHandler                        0x08003d34   Section        0  tim.o(i.TIM2_IRQHandler)
    i.TIM6_DAC_IRQHandler                    0x08003d60   Section        0  tim.o(i.TIM6_DAC_IRQHandler)
    i.TIM_ARRPreloadConfig                   0x08003d90   Section        0  stm32f4xx_tim.o(i.TIM_ARRPreloadConfig)
    i.TIM_ClearFlag                          0x08003da4   Section        0  stm32f4xx_tim.o(i.TIM_ClearFlag)
    i.TIM_ClearITPendingBit                  0x08003daa   Section        0  stm32f4xx_tim.o(i.TIM_ClearITPendingBit)
    i.TIM_Cmd                                0x08003db0   Section        0  stm32f4xx_tim.o(i.TIM_Cmd)
    i.TIM_Config                             0x08003dc4   Section        0  stm32util.o(i.TIM_Config)
    i.TIM_GetITStatus                        0x08003f08   Section        0  stm32f4xx_tim.o(i.TIM_GetITStatus)
    i.TIM_ITConfig                           0x08003f20   Section        0  stm32f4xx_tim.o(i.TIM_ITConfig)
    i.TIM_OC1Init                            0x08003f30   Section        0  stm32f4xx_tim.o(i.TIM_OC1Init)
    i.TIM_OC1PreloadConfig                   0x08003f90   Section        0  stm32f4xx_tim.o(i.TIM_OC1PreloadConfig)
    i.TIM_OC2Init                            0x08003f9c   Section        0  stm32f4xx_tim.o(i.TIM_OC2Init)
    i.TIM_OC2PreloadConfig                   0x0800401c   Section        0  stm32f4xx_tim.o(i.TIM_OC2PreloadConfig)
    i.TIM_OC3Init                            0x08004030   Section        0  stm32f4xx_tim.o(i.TIM_OC3Init)
    i.TIM_OC3PreloadConfig                   0x080040ac   Section        0  stm32f4xx_tim.o(i.TIM_OC3PreloadConfig)
    i.TIM_OC4Init                            0x080040b8   Section        0  stm32f4xx_tim.o(i.TIM_OC4Init)
    i.TIM_OC4PreloadConfig                   0x08004118   Section        0  stm32f4xx_tim.o(i.TIM_OC4PreloadConfig)
    i.TIM_OC_Config                          0x0800412c   Section        0  stm32util.o(i.TIM_OC_Config)
    i.TIM_TimeBaseInit                       0x080041b0   Section        0  stm32f4xx_tim.o(i.TIM_TimeBaseInit)
    i.TickTimCallback                        0x0800422c   Section        0  tim_srv.o(i.TickTimCallback)
    i.TickTim_Config                         0x08004230   Section        0  tim.o(i.TickTim_Config)
    i.TickTim_Start                          0x08004254   Section        0  tim.o(i.TickTim_Start)
    i.Tim_Config                             0x08004276   Section        0  tim.o(i.Tim_Config)
    i.Tim_Start                              0x08004284   Section        0  tim.o(i.Tim_Start)
    i.TtyRxCallback                          0x08004292   Section        0  com_srv.o(i.TtyRxCallback)
    i.Tty_Config                             0x08004298   Section        0  tty.o(i.Tty_Config)
    i.Tty_Proc                               0x08004308   Section        0  com.o(i.Tty_Proc)
    i.Tty_ReadByte                           0x08004310   Section        0  tty.o(i.Tty_ReadByte)
    i.USART1_IRQHandler                      0x08004354   Section        0  rcv.o(i.USART1_IRQHandler)
    i.USART2_IRQHandler                      0x080043d8   Section        0  btm.o(i.USART2_IRQHandler)
    i.USART3_IRQHandler                      0x08004470   Section        0  dbi.o(i.USART3_IRQHandler)
    i.USART6_IRQHandler                      0x08004508   Section        0  tty.o(i.USART6_IRQHandler)
    i.USART_Bind                             0x080045a0   Section        0  stm32util.o(i.USART_Bind)
    i.USART_ClearFlag                        0x08005380   Section        0  stm32f4xx_usart.o(i.USART_ClearFlag)
    i.USART_ClearITPendingBit                0x08005386   Section        0  stm32f4xx_usart.o(i.USART_ClearITPendingBit)
    i.USART_Cmd                              0x08005392   Section        0  stm32f4xx_usart.o(i.USART_Cmd)
    i.USART_Config                           0x080053a8   Section        0  stm32util.o(i.USART_Config)
    i.USART_DMACmd                           0x08005538   Section        0  stm32f4xx_usart.o(i.USART_DMACmd)
    i.USART_GetFlagStatus                    0x08005548   Section        0  stm32f4xx_usart.o(i.USART_GetFlagStatus)
    i.USART_GetITStatus                      0x08005556   Section        0  stm32f4xx_usart.o(i.USART_GetITStatus)
    i.USART_ITConfig                         0x08005594   Section        0  stm32f4xx_usart.o(i.USART_ITConfig)
    i.USART_Init                             0x080055c4   Section        0  stm32f4xx_usart.o(i.USART_Init)
    i.USART_ReceiveData                      0x08005670   Section        0  stm32f4xx_usart.o(i.USART_ReceiveData)
    i.USART_SendData                         0x08005678   Section        0  stm32f4xx_usart.o(i.USART_SendData)
    i.Upd_Init                               0x08005680   Section        0  upd.o(i.Upd_Init)
    i.Upd_Proc                               0x0800568e   Section        0  upd.o(i.Upd_Proc)
    i.UsageFault_Handler                     0x080056d2   Section        0  stm32f4xx_it.o(i.UsageFault_Handler)
    i.Wdg_Feed                               0x080056d4   Section        0  wdg.o(i.Wdg_Feed)
    i.Wdg_Init                               0x080056e4   Section        0  wdg.o(i.Wdg_Init)
    i.Wdg_IsErrSet                           0x08005710   Section        0  wdg.o(i.Wdg_IsErrSet)
    i.Wdg_Proc                               0x0800571c   Section        0  wdg.o(i.Wdg_Proc)
    i.Wsm_GetLastWorkingState                0x08005760   Section        0  wsm.o(i.Wsm_GetLastWorkingState)
    i.Wsm_GetWorkingState                    0x0800576c   Section        0  wsm.o(i.Wsm_GetWorkingState)
    i.Wsm_Init                               0x08005778   Section        0  wsm.o(i.Wsm_Init)
    i.Wsm_Proc                               0x08005788   Section        0  wsm.o(i.Wsm_Proc)
    i.ZGyro_Process                          0x080057e4   Section        0  can.o(i.ZGyro_Process)
    i.ZGyro_Ready                            0x0800586c   Section        0  can.o(i.ZGyro_Ready)
    i.ZGyro_Reset                            0x0800587c   Section        0  can.o(i.ZGyro_Reset)
    i.__0printf                              0x080058a4   Section        0  printfa.o(i.__0printf)
    i.__scatterload_copy                     0x080058c4   Section       14  handlers.o(i.__scatterload_copy)
    i.__scatterload_null                     0x080058d2   Section        2  handlers.o(i.__scatterload_null)
    i.__scatterload_zeroinit                 0x080058d4   Section       14  handlers.o(i.__scatterload_zeroinit)
    i._fp_digits                             0x080058e4   Section        0  printfa.o(i._fp_digits)
    _fp_digits                               0x080058e5   Thumb Code   366  printfa.o(i._fp_digits)
    i._printf_core                           0x08005a68   Section        0  printfa.o(i._printf_core)
    _printf_core                             0x08005a69   Thumb Code  1744  printfa.o(i._printf_core)
    i._printf_post_padding                   0x08006144   Section        0  printfa.o(i._printf_post_padding)
    _printf_post_padding                     0x08006145   Thumb Code    36  printfa.o(i._printf_post_padding)
    i._printf_pre_padding                    0x08006168   Section        0  printfa.o(i._printf_pre_padding)
    _printf_pre_padding                      0x08006169   Thumb Code    46  printfa.o(i._printf_pre_padding)
    i.fputc                                  0x08006198   Section        0  ios.o(i.fputc)
    i.getSchTask                             0x080061b0   Section        0  sch.o(i.getSchTask)
    getSchTask                               0x080061b1   Thumb Code    22  sch.o(i.getSchTask)
    i.main                                   0x080061cc   Section        0  main.o(i.main)
    i.malloc                                 0x080061d8   Section        0  malloc.o(i.malloc)
    i.newSchTask                             0x08006244   Section        0  sch.o(i.newSchTask)
    newSchTask                               0x08006245   Thumb Code    40  sch.o(i.newSchTask)
    .constdata                               0x0800626c   Section      296  cfg.o(.constdata)
    .constdata                               0x08006394   Section       48  wdg.o(.constdata)
    .data                                    0x20000000   Section        8  sch.o(.data)
    first                                    0x20000000   Data           4  sch.o(.data)
    last                                     0x20000004   Data           4  sch.o(.data)
    .data                                    0x20000008   Section      148  cfg.o(.data)
    .data                                    0x2000009c   Section        4  clk.o(.data)
    us_tick                                  0x2000009c   Data           4  clk.o(.data)
    .data                                    0x200000a0   Section        4  cmd.o(.data)
    .data                                    0x200000a4   Section       36  ctl.o(.data)
    .data                                    0x200000c8   Section       16  hci.o(.data)
    lastRawMouseButtonStates                 0x200000cc   Data           2  hci.o(.data)
    lastMouseButtonStates                    0x200000ce   Data           2  hci.o(.data)
    mouseButtonPressedCounts                 0x200000d0   Data           8  hci.o(.data)
    .data                                    0x200000d8   Section        4  ini.o(.data)
    iniFlag                                  0x200000d8   Data           4  ini.o(.data)
    .data                                    0x200000dc   Section        8  ios.o(.data)
    .data                                    0x200000e4   Section        4  odo.o(.data)
    .data                                    0x200000e8   Section       16  rci.o(.data)
    lastRawSwitchStates                      0x200000ec   Data           2  rci.o(.data)
    lastSwitchStates                         0x200000ee   Data           2  rci.o(.data)
    switchConfirmCounts                      0x200000f0   Data           8  rci.o(.data)
    .data                                    0x200000f8   Section       52  wdg.o(.data)
    err                                      0x200000f8   Data           4  wdg.o(.data)
    .data                                    0x2000012c   Section        2  wsm.o(.data)
    workingState                             0x2000012c   Data           1  wsm.o(.data)
    lastWorkingState                         0x2000012d   Data           1  wsm.o(.data)
    .data                                    0x2000012e   Section       16  stm32f4xx_rcc.o(.data)
    APBAHBPrescTable                         0x2000012e   Data          16  stm32f4xx_rcc.o(.data)
    .data                                    0x20000140   Section        4  stdout.o(.data)
    .data                                    0x20000144   Section        4  mvars.o(.data)
    .data                                    0x20000148   Section        4  mvars.o(.data)
    .bss                                     0x2000014c   Section      664  can.o(.bss)
    .bss                                     0x200003e4   Section       28  cmd.o(.bss)
    .bss                                     0x20000400   Section      176  ctl.o(.bss)
    .bss                                     0x200004b0   Section       22  dci.o(.bss)
    .bss                                     0x200004c8   Section      168  hci.o(.bss)
    fx                                       0x200004c8   Data          16  hci.o(.bss)
    fy                                       0x200004d8   Data          16  hci.o(.bss)
    fz                                       0x200004e8   Data          16  hci.o(.bss)
    buf                                      0x200004f8   Data         120  hci.o(.bss)
    .bss                                     0x20000570   Section       20  mec.o(.bss)
    .bss                                     0x20000584   Section       72  odo.o(.bss)
    .bss                                     0x200005cc   Section      552  btm.o(.bss)
    rx_fifo                                  0x200005cc   Data          20  btm.o(.bss)
    tx_fifo                                  0x200005e0   Data          20  btm.o(.bss)
    rx_buf                                   0x200005f4   Data         256  btm.o(.bss)
    tx_buf                                   0x200006f4   Data         256  btm.o(.bss)
    .bss                                     0x200007f4   Section      552  dbi.o(.bss)
    rx_fifo                                  0x200007f4   Data          20  dbi.o(.bss)
    tx_fifo                                  0x20000808   Data          20  dbi.o(.bss)
    rx_buf                                   0x2000081c   Data         256  dbi.o(.bss)
    tx_buf                                   0x2000091c   Data         256  dbi.o(.bss)
    .bss                                     0x20000a1c   Section       72  rcv.o(.bss)
    buf                                      0x20000a1c   Data          72  rcv.o(.bss)
    .bss                                     0x20000a64   Section      552  tty.o(.bss)
    rx_fifo                                  0x20000a64   Data          20  tty.o(.bss)
    tx_fifo                                  0x20000a78   Data          20  tty.o(.bss)
    rx_buf                                   0x20000a8c   Data         256  tty.o(.bss)
    tx_buf                                   0x20000b8c   Data         256  tty.o(.bss)
    HEAP                                     0x20000c90   Section     4096  startup_stm32f427xx.o(HEAP)
    STACK                                    0x20001c90   Section     1024  startup_stm32f427xx.o(STACK)

    Global Symbols

    Symbol Name                              Value     Ov Type        Size  Object(Section)

    BuildAttributes$$THM_ISAv4$E$P$D$K$B$S$7EM$VFPi3$EXTD16$VFPS$VFMA$PE$A:L22UL41UL21$X:L11$S22US41US21$IEEE1$IW$USESV6$~STKCKD$USESV7$~SHL$OTIME$ROPI$IEEEX$EBA8$MICROLIB$REQ8$PRES8$EABIv2 0x00000000   Number         0  anon$$obj.o ABSOLUTE
    __ARM_use_no_argv                        0x00000000   Number         0  main.o ABSOLUTE
    _printf_a                                0x00000000   Number         0  stubs.o ABSOLUTE
    _printf_c                                0x00000000   Number         0  stubs.o ABSOLUTE
    _printf_charcount                        0x00000000   Number         0  stubs.o ABSOLUTE
    _printf_d                                0x00000000   Number         0  stubs.o ABSOLUTE
    _printf_e                                0x00000000   Number         0  stubs.o ABSOLUTE
    _printf_f                                0x00000000   Number         0  stubs.o ABSOLUTE
    _printf_flags                            0x00000000   Number         0  stubs.o ABSOLUTE
    _printf_fp_dec                           0x00000000   Number         0  stubs.o ABSOLUTE
    _printf_fp_hex                           0x00000000   Number         0  stubs.o ABSOLUTE
    _printf_g                                0x00000000   Number         0  stubs.o ABSOLUTE
    _printf_i                                0x00000000   Number         0  stubs.o ABSOLUTE
    _printf_int_dec                          0x00000000   Number         0  stubs.o ABSOLUTE
    _printf_l                                0x00000000   Number         0  stubs.o ABSOLUTE
    _printf_lc                               0x00000000   Number         0  stubs.o ABSOLUTE
    _printf_ll                               0x00000000   Number         0  stubs.o ABSOLUTE
    _printf_lld                              0x00000000   Number         0  stubs.o ABSOLUTE
    _printf_lli                              0x00000000   Number         0  stubs.o ABSOLUTE
    _printf_llo                              0x00000000   Number         0  stubs.o ABSOLUTE
    _printf_llu                              0x00000000   Number         0  stubs.o ABSOLUTE
    _printf_llx                              0x00000000   Number         0  stubs.o ABSOLUTE
    _printf_longlong_dec                     0x00000000   Number         0  stubs.o ABSOLUTE
    _printf_longlong_hex                     0x00000000   Number         0  stubs.o ABSOLUTE
    _printf_longlong_oct                     0x00000000   Number         0  stubs.o ABSOLUTE
    _printf_ls                               0x00000000   Number         0  stubs.o ABSOLUTE
    _printf_mbtowc                           0x00000000   Number         0  stubs.o ABSOLUTE
    _printf_n                                0x00000000   Number         0  stubs.o ABSOLUTE
    _printf_o                                0x00000000   Number         0  stubs.o ABSOLUTE
    _printf_p                                0x00000000   Number         0  stubs.o ABSOLUTE
    _printf_percent                          0x00000000   Number         0  stubs.o ABSOLUTE
    _printf_pre_padding                      0x00000000   Number         0  stubs.o ABSOLUTE
    _printf_return_value                     0x00000000   Number         0  stubs.o ABSOLUTE
    _printf_s                                0x00000000   Number         0  stubs.o ABSOLUTE
    _printf_sizespec                         0x00000000   Number         0  stubs.o ABSOLUTE
    _printf_str                              0x00000000   Number         0  stubs.o ABSOLUTE
    _printf_truncate_signed                  0x00000000   Number         0  stubs.o ABSOLUTE
    _printf_truncate_unsigned                0x00000000   Number         0  stubs.o ABSOLUTE
    _printf_u                                0x00000000   Number         0  stubs.o ABSOLUTE
    _printf_wc                               0x00000000   Number         0  stubs.o ABSOLUTE
    _printf_wctomb                           0x00000000   Number         0  stubs.o ABSOLUTE
    _printf_widthprec                        0x00000000   Number         0  stubs.o ABSOLUTE
    _printf_x                                0x00000000   Number         0  stubs.o ABSOLUTE
    __cpp_initialize__aeabi_                  - Undefined Weak Reference
    __cxa_finalize                            - Undefined Weak Reference
    _clock_init                               - Undefined Weak Reference
    _microlib_exit                            - Undefined Weak Reference
    __Vectors_Size                           0x000001ac   Number         0  startup_stm32f427xx.o ABSOLUTE
    __Vectors                                0x08000000   Data           4  startup_stm32f427xx.o(RESET)
    __Vectors_End                            0x080001ac   Data           0  startup_stm32f427xx.o(RESET)
    __main                                   0x080001ad   Thumb Code     0  entry.o(.ARM.Collect$$$$00000000)
    _main_stk                                0x080001ad   Thumb Code     0  entry2.o(.ARM.Collect$$$$00000001)
    _main_scatterload                        0x080001b1   Thumb Code     0  entry5.o(.ARM.Collect$$$$00000004)
    __main_after_scatterload                 0x080001b5   Thumb Code     0  entry5.o(.ARM.Collect$$$$00000004)
    _main_clock                              0x080001b5   Thumb Code     0  entry7b.o(.ARM.Collect$$$$00000008)
    _main_cpp_init                           0x080001b5   Thumb Code     0  entry8b.o(.ARM.Collect$$$$0000000A)
    _main_init                               0x080001b5   Thumb Code     0  entry9a.o(.ARM.Collect$$$$0000000B)
    __rt_final_cpp                           0x080001bd   Thumb Code     0  entry10a.o(.ARM.Collect$$$$0000000D)
    __rt_final_exit                          0x080001bd   Thumb Code     0  entry11a.o(.ARM.Collect$$$$0000000F)
    Reset_Handler                            0x080001c1   Thumb Code     8  startup_stm32f427xx.o(.text)
    SysTick_Handler                          0x080001d9   Thumb Code     2  startup_stm32f427xx.o(.text)
    ADC_IRQHandler                           0x080001db   Thumb Code     0  startup_stm32f427xx.o(.text)
    CAN1_RX1_IRQHandler                      0x080001db   Thumb Code     0  startup_stm32f427xx.o(.text)
    CAN1_SCE_IRQHandler                      0x080001db   Thumb Code     0  startup_stm32f427xx.o(.text)
    CAN2_RX1_IRQHandler                      0x080001db   Thumb Code     0  startup_stm32f427xx.o(.text)
    CAN2_SCE_IRQHandler                      0x080001db   Thumb Code     0  startup_stm32f427xx.o(.text)
    DCMI_IRQHandler                          0x080001db   Thumb Code     0  startup_stm32f427xx.o(.text)
    DMA1_Stream0_IRQHandler                  0x080001db   Thumb Code     0  startup_stm32f427xx.o(.text)
    DMA1_Stream1_IRQHandler                  0x080001db   Thumb Code     0  startup_stm32f427xx.o(.text)
    DMA1_Stream2_IRQHandler                  0x080001db   Thumb Code     0  startup_stm32f427xx.o(.text)
    DMA1_Stream3_IRQHandler                  0x080001db   Thumb Code     0  startup_stm32f427xx.o(.text)
    DMA1_Stream4_IRQHandler                  0x080001db   Thumb Code     0  startup_stm32f427xx.o(.text)
    DMA1_Stream5_IRQHandler                  0x080001db   Thumb Code     0  startup_stm32f427xx.o(.text)
    DMA1_Stream6_IRQHandler                  0x080001db   Thumb Code     0  startup_stm32f427xx.o(.text)
    DMA1_Stream7_IRQHandler                  0x080001db   Thumb Code     0  startup_stm32f427xx.o(.text)
    DMA2D_IRQHandler                         0x080001db   Thumb Code     0  startup_stm32f427xx.o(.text)
    DMA2_Stream0_IRQHandler                  0x080001db   Thumb Code     0  startup_stm32f427xx.o(.text)
    DMA2_Stream1_IRQHandler                  0x080001db   Thumb Code     0  startup_stm32f427xx.o(.text)
    DMA2_Stream2_IRQHandler                  0x080001db   Thumb Code     0  startup_stm32f427xx.o(.text)
    DMA2_Stream3_IRQHandler                  0x080001db   Thumb Code     0  startup_stm32f427xx.o(.text)
    DMA2_Stream4_IRQHandler                  0x080001db   Thumb Code     0  startup_stm32f427xx.o(.text)
    DMA2_Stream5_IRQHandler                  0x080001db   Thumb Code     0  startup_stm32f427xx.o(.text)
    DMA2_Stream6_IRQHandler                  0x080001db   Thumb Code     0  startup_stm32f427xx.o(.text)
    DMA2_Stream7_IRQHandler                  0x080001db   Thumb Code     0  startup_stm32f427xx.o(.text)
    ETH_IRQHandler                           0x080001db   Thumb Code     0  startup_stm32f427xx.o(.text)
    ETH_WKUP_IRQHandler                      0x080001db   Thumb Code     0  startup_stm32f427xx.o(.text)
    EXTI0_IRQHandler                         0x080001db   Thumb Code     0  startup_stm32f427xx.o(.text)
    EXTI15_10_IRQHandler                     0x080001db   Thumb Code     0  startup_stm32f427xx.o(.text)
    EXTI1_IRQHandler                         0x080001db   Thumb Code     0  startup_stm32f427xx.o(.text)
    EXTI2_IRQHandler                         0x080001db   Thumb Code     0  startup_stm32f427xx.o(.text)
    EXTI3_IRQHandler                         0x080001db   Thumb Code     0  startup_stm32f427xx.o(.text)
    EXTI4_IRQHandler                         0x080001db   Thumb Code     0  startup_stm32f427xx.o(.text)
    EXTI9_5_IRQHandler                       0x080001db   Thumb Code     0  startup_stm32f427xx.o(.text)
    FLASH_IRQHandler                         0x080001db   Thumb Code     0  startup_stm32f427xx.o(.text)
    FMC_IRQHandler                           0x080001db   Thumb Code     0  startup_stm32f427xx.o(.text)
    FPU_IRQHandler                           0x080001db   Thumb Code     0  startup_stm32f427xx.o(.text)
    HASH_RNG_IRQHandler                      0x080001db   Thumb Code     0  startup_stm32f427xx.o(.text)
    I2C1_ER_IRQHandler                       0x080001db   Thumb Code     0  startup_stm32f427xx.o(.text)
    I2C1_EV_IRQHandler                       0x080001db   Thumb Code     0  startup_stm32f427xx.o(.text)
    I2C2_ER_IRQHandler                       0x080001db   Thumb Code     0  startup_stm32f427xx.o(.text)
    I2C2_EV_IRQHandler                       0x080001db   Thumb Code     0  startup_stm32f427xx.o(.text)
    I2C3_ER_IRQHandler                       0x080001db   Thumb Code     0  startup_stm32f427xx.o(.text)
    I2C3_EV_IRQHandler                       0x080001db   Thumb Code     0  startup_stm32f427xx.o(.text)
    OTG_FS_IRQHandler                        0x080001db   Thumb Code     0  startup_stm32f427xx.o(.text)
    OTG_FS_WKUP_IRQHandler                   0x080001db   Thumb Code     0  startup_stm32f427xx.o(.text)
    OTG_HS_EP1_IN_IRQHandler                 0x080001db   Thumb Code     0  startup_stm32f427xx.o(.text)
    OTG_HS_EP1_OUT_IRQHandler                0x080001db   Thumb Code     0  startup_stm32f427xx.o(.text)
    OTG_HS_IRQHandler                        0x080001db   Thumb Code     0  startup_stm32f427xx.o(.text)
    OTG_HS_WKUP_IRQHandler                   0x080001db   Thumb Code     0  startup_stm32f427xx.o(.text)
    PVD_IRQHandler                           0x080001db   Thumb Code     0  startup_stm32f427xx.o(.text)
    RCC_IRQHandler                           0x080001db   Thumb Code     0  startup_stm32f427xx.o(.text)
    RTC_Alarm_IRQHandler                     0x080001db   Thumb Code     0  startup_stm32f427xx.o(.text)
    RTC_WKUP_IRQHandler                      0x080001db   Thumb Code     0  startup_stm32f427xx.o(.text)
    SAI1_IRQHandler                          0x080001db   Thumb Code     0  startup_stm32f427xx.o(.text)
    SDIO_IRQHandler                          0x080001db   Thumb Code     0  startup_stm32f427xx.o(.text)
    SPI1_IRQHandler                          0x080001db   Thumb Code     0  startup_stm32f427xx.o(.text)
    SPI2_IRQHandler                          0x080001db   Thumb Code     0  startup_stm32f427xx.o(.text)
    SPI3_IRQHandler                          0x080001db   Thumb Code     0  startup_stm32f427xx.o(.text)
    SPI4_IRQHandler                          0x080001db   Thumb Code     0  startup_stm32f427xx.o(.text)
    SPI5_IRQHandler                          0x080001db   Thumb Code     0  startup_stm32f427xx.o(.text)
    SPI6_IRQHandler                          0x080001db   Thumb Code     0  startup_stm32f427xx.o(.text)
    TAMP_STAMP_IRQHandler                    0x080001db   Thumb Code     0  startup_stm32f427xx.o(.text)
    TIM1_BRK_TIM9_IRQHandler                 0x080001db   Thumb Code     0  startup_stm32f427xx.o(.text)
    TIM1_CC_IRQHandler                       0x080001db   Thumb Code     0  startup_stm32f427xx.o(.text)
    TIM1_TRG_COM_TIM11_IRQHandler            0x080001db   Thumb Code     0  startup_stm32f427xx.o(.text)
    TIM1_UP_TIM10_IRQHandler                 0x080001db   Thumb Code     0  startup_stm32f427xx.o(.text)
    TIM3_IRQHandler                          0x080001db   Thumb Code     0  startup_stm32f427xx.o(.text)
    TIM4_IRQHandler                          0x080001db   Thumb Code     0  startup_stm32f427xx.o(.text)
    TIM5_IRQHandler                          0x080001db   Thumb Code     0  startup_stm32f427xx.o(.text)
    TIM7_IRQHandler                          0x080001db   Thumb Code     0  startup_stm32f427xx.o(.text)
    TIM8_BRK_TIM12_IRQHandler                0x080001db   Thumb Code     0  startup_stm32f427xx.o(.text)
    TIM8_CC_IRQHandler                       0x080001db   Thumb Code     0  startup_stm32f427xx.o(.text)
    TIM8_TRG_COM_TIM14_IRQHandler            0x080001db   Thumb Code     0  startup_stm32f427xx.o(.text)
    TIM8_UP_TIM13_IRQHandler                 0x080001db   Thumb Code     0  startup_stm32f427xx.o(.text)
    UART4_IRQHandler                         0x080001db   Thumb Code     0  startup_stm32f427xx.o(.text)
    UART5_IRQHandler                         0x080001db   Thumb Code     0  startup_stm32f427xx.o(.text)
    UART7_IRQHandler                         0x080001db   Thumb Code     0  startup_stm32f427xx.o(.text)
    UART8_IRQHandler                         0x080001db   Thumb Code     0  startup_stm32f427xx.o(.text)
    WWDG_IRQHandler                          0x080001db   Thumb Code     0  startup_stm32f427xx.o(.text)
    __aeabi_memcpy                           0x080001e5   Thumb Code    36  memcpya.o(.text)
    __aeabi_memcpy4                          0x080001e5   Thumb Code     0  memcpya.o(.text)
    __aeabi_memcpy8                          0x080001e5   Thumb Code     0  memcpya.o(.text)
    __aeabi_memset                           0x08000209   Thumb Code    14  memseta.o(.text)
    __aeabi_memset4                          0x08000209   Thumb Code     0  memseta.o(.text)
    __aeabi_memset8                          0x08000209   Thumb Code     0  memseta.o(.text)
    __aeabi_memclr                           0x08000217   Thumb Code     4  memseta.o(.text)
    __aeabi_memclr4                          0x08000217   Thumb Code     0  memseta.o(.text)
    __aeabi_memclr8                          0x08000217   Thumb Code     0  memseta.o(.text)
    _memset$wrapper                          0x0800021b   Thumb Code    18  memseta.o(.text)
    __aeabi_dmul                             0x0800022d   Thumb Code   228  dmul.o(.text)
    __aeabi_ddiv                             0x08000311   Thumb Code   222  ddiv.o(.text)
    __aeabi_uidiv                            0x080003ef   Thumb Code     0  uidiv.o(.text)
    __aeabi_uidivmod                         0x080003ef   Thumb Code    44  uidiv.o(.text)
    __aeabi_uldivmod                         0x0800041b   Thumb Code    98  uldiv.o(.text)
    __I$use$fp                               0x0800047d   Thumb Code     0  iusefp.o(.text)
    _double_round                            0x0800047d   Thumb Code    30  depilogue.o(.text)
    _double_epilogue                         0x0800049b   Thumb Code   156  depilogue.o(.text)
    __aeabi_dadd                             0x08000537   Thumb Code   322  dadd.o(.text)
    __aeabi_dsub                             0x08000679   Thumb Code     6  dadd.o(.text)
    __aeabi_drsub                            0x0800067f   Thumb Code     6  dadd.o(.text)
    __aeabi_d2ulz                            0x08000685   Thumb Code    48  dfixul.o(.text)
    __aeabi_cdrcmple                         0x080006b5   Thumb Code    48  cdrcmple.o(.text)
    __scatterload                            0x080006e5   Thumb Code    28  init.o(.text)
    __scatterload_rt2                        0x080006e5   Thumb Code     0  init.o(.text)
    __aeabi_llsl                             0x08000709   Thumb Code    30  llshl.o(.text)
    _ll_shift_l                              0x08000709   Thumb Code     0  llshl.o(.text)
    __aeabi_llsr                             0x08000727   Thumb Code    32  llushr.o(.text)
    _ll_ushift_r                             0x08000727   Thumb Code     0  llushr.o(.text)
    __aeabi_lasr                             0x08000747   Thumb Code    36  llsshr.o(.text)
    _ll_sshift_r                             0x08000747   Thumb Code     0  llsshr.o(.text)
    __decompress                             0x0800076b   Thumb Code     0  __dczerorl2.o(.text)
    __decompress1                            0x0800076b   Thumb Code    86  __dczerorl2.o(.text)
    Act_Init                                 0x080007c1   Thumb Code    34  act.o(i.Act_Init)
    Act_Proc                                 0x080007e9   Thumb Code   126  act.o(i.Act_Proc)
    App_Init                                 0x0800087d   Thumb Code    42  app.o(i.App_Init)
    App_Proc                                 0x080008a7   Thumb Code    22  app.o(i.App_Proc)
    Bsp_Config                               0x080008bd   Thumb Code    64  bsp.o(i.Bsp_Config)
    BtmRxCallback                            0x08000901   Thumb Code     4  com_srv.o(i.BtmRxCallback)
    Btm_Config                               0x08000905   Thumb Code    94  btm.o(i.Btm_Config)
    Btm_Proc                                 0x08000975   Thumb Code     6  com.o(i.Btm_Proc)
    Btm_ReadByte                             0x0800097d   Thumb Code    60  btm.o(i.Btm_ReadByte)
    Btn_Config                               0x080009c1   Thumb Code     6  btn.o(i.Btn_Config)
    BusFault_Handler                         0x080009cd   Thumb Code     2  stm32f4xx_it.o(i.BusFault_Handler)
    CAN1_RX0_IRQHandler                      0x080009d1   Thumb Code    58  can1.o(i.CAN1_RX0_IRQHandler)
    CAN1_TX_IRQHandler                       0x08000a15   Thumb Code    30  can1.o(i.CAN1_TX_IRQHandler)
    CAN2_RX0_IRQHandler                      0x08000a39   Thumb Code    58  can2.o(i.CAN2_RX0_IRQHandler)
    CAN2_TX_IRQHandler                       0x08000a7d   Thumb Code    30  can2.o(i.CAN2_TX_IRQHandler)
    CAN_ClearFlag                            0x08000aa1   Thumb Code    44  stm32f4xx_can.o(i.CAN_ClearFlag)
    CAN_ClearITPendingBit                    0x08000ad1   Thumb Code   116  stm32f4xx_can.o(i.CAN_ClearITPendingBit)
    CAN_Config                               0x08000b49   Thumb Code    98  stm32util.o(i.CAN_Config)
    CAN_FilterInit                           0x08000bb5   Thumb Code   194  stm32f4xx_can.o(i.CAN_FilterInit)
    CAN_Filter_Config                        0x08000c81   Thumb Code    54  stm32util.o(i.CAN_Filter_Config)
    CAN_GetITStatus                          0x08000cb9   Thumb Code   162  stm32f4xx_can.o(i.CAN_GetITStatus)
    CAN_ITConfig                             0x08000d61   Thumb Code    16  stm32f4xx_can.o(i.CAN_ITConfig)
    CAN_Init                                 0x08000d71   Thumb Code   232  stm32f4xx_can.o(i.CAN_Init)
    CAN_Receive                              0x08000e59   Thumb Code   144  stm32f4xx_can.o(i.CAN_Receive)
    CAN_Transmit                             0x08000ee9   Thumb Code   164  stm32f4xx_can.o(i.CAN_Transmit)
    CM_Cmd                                   0x08000f8d   Thumb Code    78  motor.o(i.CM_Cmd)
    CS_Set                                   0x08000fdb   Thumb Code     6  sys.o(i.CS_Set)
    Can1RxCallback                           0x08000fe1   Thumb Code     4  can_srv.o(i.Can1RxCallback)
    Can1_Config                              0x08000fe5   Thumb Code   102  can1.o(i.Can1_Config)
    Can2RxCallback                           0x08001055   Thumb Code     4  can_srv.o(i.Can2RxCallback)
    Can2_Config                              0x08001059   Thumb Code   104  can2.o(i.Can2_Config)
    Can_Init                                 0x080010c9   Thumb Code    44  can.o(i.Can_Init)
    Can_Proc                                 0x080010f9   Thumb Code   154  can.o(i.Can_Proc)
    Cfg_GetFlag                              0x0800119d   Thumb Code     8  cfg.o(i.Cfg_GetFlag)
    Cfg_Init                                 0x080011a9   Thumb Code   210  cfg.o(i.Cfg_Init)
    Cfg_Load                                 0x08001285   Thumb Code     6  cfg.o(i.Cfg_Load)
    Clk_GetMsTick                            0x08001349   Thumb Code    14  clk.o(i.Clk_GetMsTick)
    Clk_Init                                 0x0800135d   Thumb Code     8  clk.o(i.Clk_Init)
    Clk_Spin                                 0x08001369   Thumb Code    10  clk.o(i.Clk_Spin)
    Cmd_Init                                 0x08001379   Thumb Code    72  cmd.o(i.Cmd_Init)
    Cmd_Proc                                 0x080013cd   Thumb Code   134  cmd.o(i.Cmd_Proc)
    Com_Init                                 0x0800145d   Thumb Code     2  com.o(i.Com_Init)
    Ctl_Init                                 0x08001461   Thumb Code   168  ctl.o(i.Ctl_Init)
    Ctl_Proc                                 0x08001515   Thumb Code    30  ctl.o(i.Ctl_Proc)
    DBUS_Rst                                 0x0800153d   Thumb Code    20  dbus.o(i.DBUS_Rst)
    DMA_Cmd                                  0x08001551   Thumb Code    20  stm32f4xx_dma.o(i.DMA_Cmd)
    DMA_Config                               0x08001565   Thumb Code   100  stm32util.o(i.DMA_Config)
    DMA_DoubleBufferModeCmd                  0x080015d1   Thumb Code    20  stm32f4xx_dma.o(i.DMA_DoubleBufferModeCmd)
    DMA_DoubleBufferModeConfig               0x080015e5   Thumb Code    22  stm32f4xx_dma.o(i.DMA_DoubleBufferModeConfig)
    DMA_GetCurrDataCounter                   0x080015fb   Thumb Code     6  stm32f4xx_dma.o(i.DMA_GetCurrDataCounter)
    DMA_GetCurrentMemoryTarget               0x08001601   Thumb Code    14  stm32f4xx_dma.o(i.DMA_GetCurrentMemoryTarget)
    DMA_Init                                 0x08001611   Thumb Code    80  stm32f4xx_dma.o(i.DMA_Init)
    DbiRxCallback                            0x08001665   Thumb Code     4  com_srv.o(i.DbiRxCallback)
    Dbi_Config                               0x08001669   Thumb Code    94  dbi.o(i.Dbi_Config)
    Dbi_Proc                                 0x080016d9   Thumb Code     6  com.o(i.Dbi_Proc)
    Dbi_ReadByte                             0x080016e1   Thumb Code    60  dbi.o(i.Dbi_ReadByte)
    Dci_Init                                 0x08001725   Thumb Code    20  dci.o(i.Dci_Init)
    DebugMon_Handler                         0x0800173d   Thumb Code     2  stm32f4xx_it.o(i.DebugMon_Handler)
    Ekf_Init                                 0x0800173f   Thumb Code     8  ekf.o(i.Ekf_Init)
    Ekf_Proc                                 0x08001747   Thumb Code    74  ekf.o(i.Ekf_Proc)
    Ekf_Reset                                0x08001791   Thumb Code    22  ekf.o(i.Ekf_Reset)
    Ekf_SetE                                 0x080017ad   Thumb Code     6  ekf.o(i.Ekf_SetE)
    FIFO_Flush                               0x080017b3   Thumb Code    22  fifo.o(i.FIFO_Flush)
    FIFO_Init                                0x080017c9   Thumb Code     8  fifo.o(i.FIFO_Init)
    FIFO_IsEmpty                             0x080017d1   Thumb Code    12  fifo.o(i.FIFO_IsEmpty)
    FIFO_IsFull                              0x080017dd   Thumb Code    16  fifo.o(i.FIFO_IsFull)
    FIFO_Pop                                 0x080017ed   Thumb Code    52  fifo.o(i.FIFO_Pop)
    FIFO_Push                                0x08001821   Thumb Code    58  fifo.o(i.FIFO_Push)
    FS_Clr                                   0x0800185b   Thumb Code     4  sys.o(i.FS_Clr)
    FS_Cpy                                   0x0800185f   Thumb Code     4  sys.o(i.FS_Cpy)
    FS_Det                                   0x08001863   Thumb Code     4  sys.o(i.FS_Det)
    FS_Get                                   0x08001867   Thumb Code     4  sys.o(i.FS_Get)
    Flag_Clr                                 0x0800186b   Thumb Code     8  fun.o(i.Flag_Clr)
    Flag_Cpy                                 0x08001873   Thumb Code    38  fun.o(i.Flag_Cpy)
    Flag_Det                                 0x08001899   Thumb Code    14  fun.o(i.Flag_Det)
    Flag_Get                                 0x080018a7   Thumb Code     6  fun.o(i.Flag_Get)
    Flash_Read                               0x080018ad   Thumb Code    22  flash.o(i.Flash_Read)
    Fos_Read                                 0x080018c5   Thumb Code    10  fos.o(i.Fos_Read)
    GM_Cmd                                   0x080018d5   Thumb Code    72  motor.o(i.GM_Cmd)
    GPIO_AF                                  0x0800191d   Thumb Code    40  stm32util.o(i.GPIO_AF)
    GPIO_Config                              0x08001945   Thumb Code   236  stm32util.o(i.GPIO_Config)
    GPIO_In                                  0x08001a5d   Thumb Code    16  stm32util.o(i.GPIO_In)
    GPIO_Init                                0x08001a6d   Thumb Code   162  stm32f4xx_gpio.o(i.GPIO_Init)
    GPIO_Out                                 0x08001b0f   Thumb Code    18  stm32util.o(i.GPIO_Out)
    GPIO_PinAFConfig                         0x08001b21   Thumb Code    32  stm32f4xx_gpio.o(i.GPIO_PinAFConfig)
    GPIO_ReadOutputDataBit                   0x08001b41   Thumb Code    14  stm32f4xx_gpio.o(i.GPIO_ReadOutputDataBit)
    GPIO_ResetBits                           0x08001b4f   Thumb Code     4  stm32f4xx_gpio.o(i.GPIO_ResetBits)
    GPIO_SetBits                             0x08001b53   Thumb Code     4  stm32f4xx_gpio.o(i.GPIO_SetBits)
    HCP_Rst                                  0x08001b57   Thumb Code    28  hcp.o(i.HCP_Rst)
    HardFault_Handler                        0x08001b73   Thumb Code     2  stm32f4xx_it.o(i.HardFault_Handler)
    Hci_Init                                 0x08001b75   Thumb Code    78  hci.o(i.Hci_Init)
    Ini_GetFlag                              0x08001bd9   Thumb Code     8  ini.o(i.Ini_GetFlag)
    Ini_Init                                 0x08001be5   Thumb Code     8  ini.o(i.Ini_Init)
    Ini_Proc                                 0x08001bf1   Thumb Code    98  ini.o(i.Ini_Proc)
    Ios_GetByte                              0x08001c61   Thumb Code    54  ios.o(i.Ios_GetByte)
    Ios_Init                                 0x08001c99   Thumb Code    18  ios.o(i.Ios_Init)
    Ios_PutByte                              0x08001cb5   Thumb Code    26  ios.o(i.Ios_PutByte)
    Ios_SetIn                                0x08001cd5   Thumb Code    10  ios.o(i.Ios_SetIn)
    Ios_SetOut                               0x08001ce5   Thumb Code    10  ios.o(i.Ios_SetOut)
    KOS_Boot                                 0x08001cf5   Thumb Code    26  kos.o(i.KOS_Boot)
    Led_Config                               0x08001d15   Thumb Code    40  led.o(i.Led_Config)
    MS_Set                                   0x08001d45   Thumb Code     6  sys.o(i.MS_Set)
    Maf_Init                                 0x08001d4b   Thumb Code     8  maf.o(i.Maf_Init)
    Maf_Reset                                0x08001d55   Thumb Code    28  maf.o(i.Maf_Reset)
    Mec_Config                               0x08001d75   Thumb Code     6  mec.o(i.Mec_Config)
    Mec_Decomp                               0x08001d81   Thumb Code    10  mec.o(i.Mec_Decomp)
    Mec_Init                                 0x08001d91   Thumb Code    10  mec.o(i.Mec_Init)
    Mec_Synthe                               0x08001da1   Thumb Code    10  mec.o(i.Mec_Synthe)
    Mecanum_Config                           0x08001db1   Thumb Code    50  mecanum.o(i.Mecanum_Config)
    Mecanum_Decomp                           0x08001de3   Thumb Code   142  mecanum.o(i.Mecanum_Decomp)
    Mecanum_Synthe                           0x08001e71   Thumb Code   114  mecanum.o(i.Mecanum_Synthe)
    MemManage_Handler                        0x08001ee3   Thumb Code     2  stm32f4xx_it.o(i.MemManage_Handler)
    Motor_Process                            0x08001ee5   Thumb Code   314  can.o(i.Motor_Process)
    Motor_Ready                              0x08002041   Thumb Code    14  can.o(i.Motor_Ready)
    Motor_Reset                              0x08002051   Thumb Code    76  can.o(i.Motor_Reset)
    NMI_Handler                              0x080020a1   Thumb Code     2  stm32f4xx_it.o(i.NMI_Handler)
    NVIC_Config                              0x080020a3   Thumb Code    28  stm32util.o(i.NVIC_Config)
    NVIC_Init                                0x080020c1   Thumb Code    96  misc.o(i.NVIC_Init)
    NVIC_PriorityGroupConfig                 0x08002125   Thumb Code    10  misc.o(i.NVIC_PriorityGroupConfig)
    Odo_Init                                 0x08002139   Thumb Code   140  odo.o(i.Odo_Init)
    Odo_Proc                                 0x080021d1   Thumb Code   202  odo.o(i.Odo_Proc)
    PID_Calc                                 0x080022b1   Thumb Code   218  pid.o(i.PID_Calc)
    PID_Config                               0x08002391   Thumb Code     6  pid.o(i.PID_Config)
    PID_Reset                                0x080023a9   Thumb Code    14  pid.o(i.PID_Reset)
    PWM_Bind                                 0x080023bd   Thumb Code  5436  stm32util.o(i.PWM_Bind)
    PendSV_Handler                           0x08003901   Thumb Code     2  stm32f4xx_it.o(i.PendSV_Handler)
    Pwm_Config                               0x08003905   Thumb Code    66  pwm.o(i.Pwm_Config)
    RCC_AHB1PeriphClockCmd                   0x08003951   Thumb Code    18  stm32f4xx_rcc.o(i.RCC_AHB1PeriphClockCmd)
    RCC_APB1PeriphClockCmd                   0x08003969   Thumb Code    18  stm32f4xx_rcc.o(i.RCC_APB1PeriphClockCmd)
    RCC_APB2PeriphClockCmd                   0x08003981   Thumb Code    18  stm32f4xx_rcc.o(i.RCC_APB2PeriphClockCmd)
    RCC_GetClocksFreq                        0x08003999   Thumb Code   132  stm32f4xx_rcc.o(i.RCC_GetClocksFreq)
    RCP_Rst                                  0x08003a2d   Thumb Code    38  rcp.o(i.RCP_Rst)
    Rci_Init                                 0x08003a55   Thumb Code    36  rci.o(i.Rci_Init)
    RcvCallback                              0x08003a7d   Thumb Code     2  rcv_srv.o(i.RcvCallback)
    Rcv_Config                               0x08003a81   Thumb Code   126  rcv.o(i.Rcv_Config)
    Rmp_Calc                                 0x08003b15   Thumb Code    40  rmp.o(i.Rmp_Calc)
    Rmp_Config                               0x08003b3d   Thumb Code     4  rmp.o(i.Rmp_Config)
    Rmp_Reset                                0x08003b51   Thumb Code     6  rmp.o(i.Rmp_Reset)
    SVC_Handler                              0x08003b57   Thumb Code     2  stm32f4xx_it.o(i.SVC_Handler)
    Sch_Arrange                              0x08003b59   Thumb Code    58  sch.o(i.Sch_Arrange)
    SyncTimCallback                          0x08003c69   Thumb Code     6  tim_srv.o(i.SyncTimCallback)
    SyncTim_Config                           0x08003c85   Thumb Code    38  tim.o(i.SyncTim_Config)
    SyncTim_Start                            0x08003cb1   Thumb Code    34  tim.o(i.SyncTim_Start)
    SystemInit                               0x08003cd9   Thumb Code    74  system_stm32f4xx.o(i.SystemInit)
    TIM2_IRQHandler                          0x08003d35   Thumb Code    42  tim.o(i.TIM2_IRQHandler)
    TIM6_DAC_IRQHandler                      0x08003d61   Thumb Code    42  tim.o(i.TIM6_DAC_IRQHandler)
    TIM_ARRPreloadConfig                     0x08003d91   Thumb Code    20  stm32f4xx_tim.o(i.TIM_ARRPreloadConfig)
    TIM_ClearFlag                            0x08003da5   Thumb Code     6  stm32f4xx_tim.o(i.TIM_ClearFlag)
    TIM_ClearITPendingBit                    0x08003dab   Thumb Code     6  stm32f4xx_tim.o(i.TIM_ClearITPendingBit)
    TIM_Cmd                                  0x08003db1   Thumb Code    20  stm32f4xx_tim.o(i.TIM_Cmd)
    TIM_Config                               0x08003dc5   Thumb Code   276  stm32util.o(i.TIM_Config)
    TIM_GetITStatus                          0x08003f09   Thumb Code    24  stm32f4xx_tim.o(i.TIM_GetITStatus)
    TIM_ITConfig                             0x08003f21   Thumb Code    16  stm32f4xx_tim.o(i.TIM_ITConfig)
    TIM_OC1Init                              0x08003f31   Thumb Code    88  stm32f4xx_tim.o(i.TIM_OC1Init)
    TIM_OC1PreloadConfig                     0x08003f91   Thumb Code    12  stm32f4xx_tim.o(i.TIM_OC1PreloadConfig)
    TIM_OC2Init                              0x08003f9d   Thumb Code   120  stm32f4xx_tim.o(i.TIM_OC2Init)
    TIM_OC2PreloadConfig                     0x0800401d   Thumb Code    20  stm32f4xx_tim.o(i.TIM_OC2PreloadConfig)
    TIM_OC3Init                              0x08004031   Thumb Code   116  stm32f4xx_tim.o(i.TIM_OC3Init)
    TIM_OC3PreloadConfig                     0x080040ad   Thumb Code    12  stm32f4xx_tim.o(i.TIM_OC3PreloadConfig)
    TIM_OC4Init                              0x080040b9   Thumb Code    88  stm32f4xx_tim.o(i.TIM_OC4Init)
    TIM_OC4PreloadConfig                     0x08004119   Thumb Code    20  stm32f4xx_tim.o(i.TIM_OC4PreloadConfig)
    TIM_OC_Config                            0x0800412d   Thumb Code   130  stm32util.o(i.TIM_OC_Config)
    TIM_TimeBaseInit                         0x080041b1   Thumb Code    96  stm32f4xx_tim.o(i.TIM_TimeBaseInit)
    TickTimCallback                          0x0800422d   Thumb Code     4  tim_srv.o(i.TickTimCallback)
    TickTim_Config                           0x08004231   Thumb Code    36  tim.o(i.TickTim_Config)
    TickTim_Start                            0x08004255   Thumb Code    34  tim.o(i.TickTim_Start)
    Tim_Config                               0x08004277   Thumb Code    14  tim.o(i.Tim_Config)
    Tim_Start                                0x08004285   Thumb Code    14  tim.o(i.Tim_Start)
    TtyRxCallback                            0x08004293   Thumb Code     4  com_srv.o(i.TtyRxCallback)
    Tty_Config                               0x08004299   Thumb Code    94  tty.o(i.Tty_Config)
    Tty_Proc                                 0x08004309   Thumb Code     6  com.o(i.Tty_Proc)
    Tty_ReadByte                             0x08004311   Thumb Code    60  tty.o(i.Tty_ReadByte)
    USART1_IRQHandler                        0x08004355   Thumb Code   118  rcv.o(i.USART1_IRQHandler)
    USART2_IRQHandler                        0x080043d9   Thumb Code   142  btm.o(i.USART2_IRQHandler)
    USART3_IRQHandler                        0x08004471   Thumb Code   142  dbi.o(i.USART3_IRQHandler)
    USART6_IRQHandler                        0x08004509   Thumb Code   142  tty.o(i.USART6_IRQHandler)
    USART_Bind                               0x080045a1   Thumb Code  3544  stm32util.o(i.USART_Bind)
    USART_ClearFlag                          0x08005381   Thumb Code     6  stm32f4xx_usart.o(i.USART_ClearFlag)
    USART_ClearITPendingBit                  0x08005387   Thumb Code    12  stm32f4xx_usart.o(i.USART_ClearITPendingBit)
    USART_Cmd                                0x08005393   Thumb Code    20  stm32f4xx_usart.o(i.USART_Cmd)
    USART_Config                             0x080053a9   Thumb Code   366  stm32util.o(i.USART_Config)
    USART_DMACmd                             0x08005539   Thumb Code    16  stm32f4xx_usart.o(i.USART_DMACmd)
    USART_GetFlagStatus                      0x08005549   Thumb Code    14  stm32f4xx_usart.o(i.USART_GetFlagStatus)
    USART_GetITStatus                        0x08005557   Thumb Code    62  stm32f4xx_usart.o(i.USART_GetITStatus)
    USART_ITConfig                           0x08005595   Thumb Code    48  stm32f4xx_usart.o(i.USART_ITConfig)
    USART_Init                               0x080055c5   Thumb Code   164  stm32f4xx_usart.o(i.USART_Init)
    USART_ReceiveData                        0x08005671   Thumb Code     8  stm32f4xx_usart.o(i.USART_ReceiveData)
    USART_SendData                           0x08005679   Thumb Code     8  stm32f4xx_usart.o(i.USART_SendData)
    Upd_Init                                 0x08005681   Thumb Code    14  upd.o(i.Upd_Init)
    Upd_Proc                                 0x0800568f   Thumb Code    68  upd.o(i.Upd_Proc)
    UsageFault_Handler                       0x080056d3   Thumb Code     2  stm32f4xx_it.o(i.UsageFault_Handler)
    Wdg_Feed                                 0x080056d5   Thumb Code    10  wdg.o(i.Wdg_Feed)
    Wdg_Init                                 0x080056e5   Thumb Code    34  wdg.o(i.Wdg_Init)
    Wdg_IsErrSet                             0x08005711   Thumb Code     8  wdg.o(i.Wdg_IsErrSet)
    Wdg_Proc                                 0x0800571d   Thumb Code    58  wdg.o(i.Wdg_Proc)
    Wsm_GetLastWorkingState                  0x08005761   Thumb Code     6  wsm.o(i.Wsm_GetLastWorkingState)
    Wsm_GetWorkingState                      0x0800576d   Thumb Code     6  wsm.o(i.Wsm_GetWorkingState)
    Wsm_Init                                 0x08005779   Thumb Code    10  wsm.o(i.Wsm_Init)
    Wsm_Proc                                 0x08005789   Thumb Code    88  wsm.o(i.Wsm_Proc)
    ZGyro_Process                            0x080057e5   Thumb Code   122  can.o(i.ZGyro_Process)
    ZGyro_Ready                              0x0800586d   Thumb Code    14  can.o(i.ZGyro_Ready)
    ZGyro_Reset                              0x0800587d   Thumb Code    36  can.o(i.ZGyro_Reset)
    __0printf                                0x080058a5   Thumb Code    22  printfa.o(i.__0printf)
    __1printf                                0x080058a5   Thumb Code     0  printfa.o(i.__0printf)
    __2printf                                0x080058a5   Thumb Code     0  printfa.o(i.__0printf)
    __c89printf                              0x080058a5   Thumb Code     0  printfa.o(i.__0printf)
    printf                                   0x080058a5   Thumb Code     0  printfa.o(i.__0printf)
    __scatterload_copy                       0x080058c5   Thumb Code    14  handlers.o(i.__scatterload_copy)
    __scatterload_null                       0x080058d3   Thumb Code     2  handlers.o(i.__scatterload_null)
    __scatterload_zeroinit                   0x080058d5   Thumb Code    14  handlers.o(i.__scatterload_zeroinit)
    fputc                                    0x08006199   Thumb Code    18  ios.o(i.fputc)
    main                                     0x080061cd   Thumb Code    10  main.o(i.main)
    malloc                                   0x080061d9   Thumb Code    92  malloc.o(i.malloc)
    WDG                                      0x08006394   Data          48  wdg.o(.constdata)
    Region$$Table$$Base                      0x080063c4   Number         0  anon$$obj.o(Region$$Table)
    Region$$Table$$Limit                     0x080063e4   Number         0  anon$$obj.o(Region$$Table)
    cfg                                      0x20000008   Data         148  cfg.o(.data)
    functionalStateRef                       0x200000a0   Data           4  cmd.o(.data)
    functionalStateCtl                       0x200000a4   Data           4  ctl.o(.data)
    CM1SpeedRmp                              0x200000a8   Data           8  ctl.o(.data)
    CM2SpeedRmp                              0x200000b0   Data           8  ctl.o(.data)
    CM3SpeedRmp                              0x200000b8   Data           8  ctl.o(.data)
    CM4SpeedRmp                              0x200000c0   Data           8  ctl.o(.data)
    mouseButtonStates                        0x200000c8   Data           2  hci.o(.data)
    mouseButtonEvents                        0x200000ca   Data           2  hci.o(.data)
    _in                                      0x200000dc   Data           4  ios.o(.data)
    _out                                     0x200000e0   Data           4  ios.o(.data)
    functionalStateFdb                       0x200000e4   Data           4  odo.o(.data)
    switchStates                             0x200000e8   Data           2  rci.o(.data)
    switchEvents                             0x200000ea   Data           2  rci.o(.data)
    wdg                                      0x200000fc   Data          48  wdg.o(.data)
    __stdout                                 0x20000140   Data           4  stdout.o(.data)
    __microlib_freelist                      0x20000144   Data           4  mvars.o(.data)
    __microlib_freelist_initialised          0x20000148   Data           4  mvars.o(.data)
    zgyro                                    0x2000014c   Data          40  can.o(.bss)
    motor                                    0x20000174   Data         624  can.o(.bss)
    chassisVelocityRef                       0x200003e4   Data          12  cmd.o(.bss)
    mecanumVelocityRef                       0x200003f0   Data          16  cmd.o(.bss)
    CM1SpeedPID                              0x20000400   Data          40  ctl.o(.bss)
    CM2SpeedPID                              0x20000428   Data          40  ctl.o(.bss)
    CM3SpeedPID                              0x20000450   Data          40  ctl.o(.bss)
    CM4SpeedPID                              0x20000478   Data          40  ctl.o(.bss)
    mecanumCurrentsCtl                       0x200004a0   Data          16  ctl.o(.bss)
    dbus                                     0x200004b0   Data          22  dci.o(.bss)
    mecanum                                  0x20000570   Data          20  mec.o(.bss)
    mecanumPositionFdb                       0x20000584   Data          16  odo.o(.bss)
    mecanumVelocityFdb                       0x20000594   Data          16  odo.o(.bss)
    mecanumCurrentsFdb                       0x200005a4   Data          16  odo.o(.bss)
    chassisPositionFdb                       0x200005b4   Data          12  odo.o(.bss)
    chassisVelocityFdb                       0x200005c0   Data          12  odo.o(.bss)
    __heap_base                              0x20000c90   Data           0  startup_stm32f427xx.o(HEAP)
    __heap_limit                             0x20001c90   Data           0  startup_stm32f427xx.o(HEAP)
    __initial_sp                             0x20002090   Data           0  startup_stm32f427xx.o(STACK)



==============================================================================

Memory Map of the image

  Image Entry point : 0x080001ad

  Load Region LR_IROM1 (Base: 0x08000000, Size: 0x00006530, Max: 0x00200000, ABSOLUTE, COMPRESSED[0x00006448])

    Execution Region ER_IROM1 (Base: 0x08000000, Size: 0x000063e4, Max: 0x00200000, ABSOLUTE)

    Base Addr    Size         Type   Attr      Idx    E Section Name        Object

    0x08000000   0x000001ac   Data   RO         8075    RESET               startup_stm32f427xx.o
    0x080001ac   0x00000000   Code   RO         8118  * .ARM.Collect$$$$00000000  mc_w.l(entry.o)
    0x080001ac   0x00000004   Code   RO         8465    .ARM.Collect$$$$00000001  mc_w.l(entry2.o)
    0x080001b0   0x00000004   Code   RO         8468    .ARM.Collect$$$$00000004  mc_w.l(entry5.o)
    0x080001b4   0x00000000   Code   RO         8470    .ARM.Collect$$$$00000008  mc_w.l(entry7b.o)
    0x080001b4   0x00000000   Code   RO         8472    .ARM.Collect$$$$0000000A  mc_w.l(entry8b.o)
    0x080001b4   0x00000008   Code   RO         8473    .ARM.Collect$$$$0000000B  mc_w.l(entry9a.o)
    0x080001bc   0x00000000   Code   RO         8475    .ARM.Collect$$$$0000000D  mc_w.l(entry10a.o)
    0x080001bc   0x00000000   Code   RO         8477    .ARM.Collect$$$$0000000F  mc_w.l(entry11a.o)
    0x080001bc   0x00000004   Code   RO         8466    .ARM.Collect$$$$00002712  mc_w.l(entry2.o)
    0x080001c0   0x00000024   Code   RO         8076    .text               startup_stm32f427xx.o
    0x080001e4   0x00000024   Code   RO         8121    .text               mc_w.l(memcpya.o)
    0x08000208   0x00000024   Code   RO         8123    .text               mc_w.l(memseta.o)
    0x0800022c   0x000000e4   Code   RO         8418    .text               mf_w.l(dmul.o)
    0x08000310   0x000000de   Code   RO         8420    .text               mf_w.l(ddiv.o)
    0x080003ee   0x0000002c   Code   RO         8480    .text               mc_w.l(uidiv.o)
    0x0800041a   0x00000062   Code   RO         8482    .text               mc_w.l(uldiv.o)
    0x0800047c   0x00000000   Code   RO         8493    .text               mc_w.l(iusefp.o)
    0x0800047c   0x000000ba   Code   RO         8496    .text               mf_w.l(depilogue.o)
    0x08000536   0x0000014e   Code   RO         8498    .text               mf_w.l(dadd.o)
    0x08000684   0x00000030   Code   RO         8504    .text               mf_w.l(dfixul.o)
    0x080006b4   0x00000030   Code   RO         8508    .text               mf_w.l(cdrcmple.o)
    0x080006e4   0x00000024   Code   RO         8510    .text               mc_w.l(init.o)
    0x08000708   0x0000001e   Code   RO         8512    .text               mc_w.l(llshl.o)
    0x08000726   0x00000020   Code   RO         8514    .text               mc_w.l(llushr.o)
    0x08000746   0x00000024   Code   RO         8516    .text               mc_w.l(llsshr.o)
    0x0800076a   0x00000056   Code   RO         8526    .text               mc_w.l(__dczerorl2.o)
    0x080007c0   0x00000028   Code   RO          512    i.Act_Init          act.o
    0x080007e8   0x00000094   Code   RO          513    i.Act_Proc          act.o
    0x0800087c   0x0000002a   Code   RO          542    i.App_Init          app.o
    0x080008a6   0x00000016   Code   RO          543    i.App_Proc          app.o
    0x080008bc   0x00000044   Code   RO         2232    i.Bsp_Config        bsp.o
    0x08000900   0x00000004   Code   RO         2117    i.BtmRxCallback     com_srv.o
    0x08000904   0x00000070   Code   RO         2256    i.Btm_Config        btm.o
    0x08000974   0x00000006   Code   RO          796    i.Btm_Proc          com.o
    0x0800097a   0x00000002   PAD
    0x0800097c   0x00000044   Code   RO         2259    i.Btm_ReadByte      btm.o
    0x080009c0   0x0000000c   Code   RO         2324    i.Btn_Config        btn.o
    0x080009cc   0x00000002   Code   RO          353    i.BusFault_Handler  stm32f4xx_it.o
    0x080009ce   0x00000002   PAD
    0x080009d0   0x00000044   Code   RO         2348    i.CAN1_RX0_IRQHandler  can1.o
    0x08000a14   0x00000024   Code   RO         2349    i.CAN1_TX_IRQHandler  can1.o
    0x08000a38   0x00000044   Code   RO         2384    i.CAN2_RX0_IRQHandler  can2.o
    0x08000a7c   0x00000024   Code   RO         2385    i.CAN2_TX_IRQHandler  can2.o
    0x08000aa0   0x00000030   Code   RO         3256    i.CAN_ClearFlag     stm32f4xx_can.o
    0x08000ad0   0x00000078   Code   RO         3257    i.CAN_ClearITPendingBit  stm32f4xx_can.o
    0x08000b48   0x0000006c   Code   RO         2568    i.CAN_Config        stm32util.o
    0x08000bb4   0x000000cc   Code   RO         3261    i.CAN_FilterInit    stm32f4xx_can.o
    0x08000c80   0x00000036   Code   RO         2569    i.CAN_Filter_Config  stm32util.o
    0x08000cb6   0x00000002   PAD
    0x08000cb8   0x000000a8   Code   RO         3263    i.CAN_GetITStatus   stm32f4xx_can.o
    0x08000d60   0x00000010   Code   RO         3267    i.CAN_ITConfig      stm32f4xx_can.o
    0x08000d70   0x000000e8   Code   RO         3268    i.CAN_Init          stm32f4xx_can.o
    0x08000e58   0x00000090   Code   RO         3271    i.CAN_Receive       stm32f4xx_can.o
    0x08000ee8   0x000000a4   Code   RO         3276    i.CAN_Transmit      stm32f4xx_can.o
    0x08000f8c   0x0000004e   Code   RO         2880    i.CM_Cmd            motor.o
    0x08000fda   0x00000006   Code   RO         1354    i.CS_Set            sys.o
    0x08000fe0   0x00000004   Code   RO         2096    i.Can1RxCallback    can_srv.o
    0x08000fe4   0x00000070   Code   RO         2350    i.Can1_Config       can1.o
    0x08001054   0x00000004   Code   RO         2097    i.Can2RxCallback    can_srv.o
    0x08001058   0x00000070   Code   RO         2386    i.Can2_Config       can2.o
    0x080010c8   0x00000030   Code   RO          569    i.Can_Init          can.o
    0x080010f8   0x000000a4   Code   RO          570    i.Can_Proc          can.o
    0x0800119c   0x0000000c   Code   RO          633    i.Cfg_GetFlag       cfg.o
    0x080011a8   0x000000dc   Code   RO          635    i.Cfg_Init          cfg.o
    0x08001284   0x00000006   Code   RO          636    i.Cfg_Load          cfg.o
    0x0800128a   0x00000002   PAD
    0x0800128c   0x000000b0   Code   RO          848    i.ChassisVelocityControl  ctl.o
    0x0800133c   0x0000000c   Code   RO         3279    i.CheckITStatus     stm32f4xx_can.o
    0x08001348   0x00000014   Code   RO          712    i.Clk_GetMsTick     clk.o
    0x0800135c   0x0000000c   Code   RO          714    i.Clk_Init          clk.o
    0x08001368   0x00000010   Code   RO          715    i.Clk_Spin          clk.o
    0x08001378   0x00000054   Code   RO          756    i.Cmd_Init          cmd.o
    0x080013cc   0x00000090   Code   RO          757    i.Cmd_Proc          cmd.o
    0x0800145c   0x00000002   Code   RO          797    i.Com_Init          com.o
    0x0800145e   0x00000002   PAD
    0x08001460   0x000000b4   Code   RO          849    i.Ctl_Init          ctl.o
    0x08001514   0x00000028   Code   RO          850    i.Ctl_Proc          ctl.o
    0x0800153c   0x00000014   Code   RO         1603    i.DBUS_Rst          dbus.o
    0x08001550   0x00000014   Code   RO         4036    i.DMA_Cmd           stm32f4xx_dma.o
    0x08001564   0x0000006c   Code   RO         2570    i.DMA_Config        stm32util.o
    0x080015d0   0x00000014   Code   RO         4038    i.DMA_DoubleBufferModeCmd  stm32f4xx_dma.o
    0x080015e4   0x00000016   Code   RO         4039    i.DMA_DoubleBufferModeConfig  stm32f4xx_dma.o
    0x080015fa   0x00000006   Code   RO         4042    i.DMA_GetCurrDataCounter  stm32f4xx_dma.o
    0x08001600   0x0000000e   Code   RO         4043    i.DMA_GetCurrentMemoryTarget  stm32f4xx_dma.o
    0x0800160e   0x00000002   PAD
    0x08001610   0x00000054   Code   RO         4048    i.DMA_Init          stm32f4xx_dma.o
    0x08001664   0x00000004   Code   RO         2118    i.DbiRxCallback     com_srv.o
    0x08001668   0x00000070   Code   RO         2420    i.Dbi_Config        dbi.o
    0x080016d8   0x00000006   Code   RO          799    i.Dbi_Proc          com.o
    0x080016de   0x00000002   PAD
    0x080016e0   0x00000044   Code   RO         2423    i.Dbi_ReadByte      dbi.o
    0x08001724   0x00000018   Code   RO          955    i.Dci_Init          dci.o
    0x0800173c   0x00000002   Code   RO          354    i.DebugMon_Handler  stm32f4xx_it.o
    0x0800173e   0x00000008   Code   RO         1627    i.Ekf_Init          ekf.o
    0x08001746   0x0000004a   Code   RO         1628    i.Ekf_Proc          ekf.o
    0x08001790   0x0000001c   Code   RO         1629    i.Ekf_Reset         ekf.o
    0x080017ac   0x00000006   Code   RO         1631    i.Ekf_SetE          ekf.o
    0x080017b2   0x00000016   Code   RO         1726    i.FIFO_Flush        fifo.o
    0x080017c8   0x00000008   Code   RO         1730    i.FIFO_Init         fifo.o
    0x080017d0   0x0000000c   Code   RO         1731    i.FIFO_IsEmpty      fifo.o
    0x080017dc   0x00000010   Code   RO         1732    i.FIFO_IsFull       fifo.o
    0x080017ec   0x00000034   Code   RO         1734    i.FIFO_Pop          fifo.o
    0x08001820   0x0000003a   Code   RO         1735    i.FIFO_Push         fifo.o
    0x0800185a   0x00000004   Code   RO         1355    i.FS_Clr            sys.o
    0x0800185e   0x00000004   Code   RO         1356    i.FS_Cpy            sys.o
    0x08001862   0x00000004   Code   RO         1357    i.FS_Det            sys.o
    0x08001866   0x00000004   Code   RO         1358    i.FS_Get            sys.o
    0x0800186a   0x00000008   Code   RO         1024    i.Flag_Clr          fun.o
    0x08001872   0x00000026   Code   RO         1025    i.Flag_Cpy          fun.o
    0x08001898   0x0000000e   Code   RO         1026    i.Flag_Det          fun.o
    0x080018a6   0x00000006   Code   RO         1027    i.Flag_Get          fun.o
    0x080018ac   0x00000016   Code   RO         2846    i.Flash_Read        flash.o
    0x080018c2   0x00000002   PAD
    0x080018c4   0x00000010   Code   RO          997    i.Fos_Read          fos.o
    0x080018d4   0x00000048   Code   RO         2881    i.GM_Cmd            motor.o
    0x0800191c   0x00000028   Code   RO         2574    i.GPIO_AF           stm32util.o
    0x08001944   0x00000118   Code   RO         2575    i.GPIO_Config       stm32util.o
    0x08001a5c   0x00000010   Code   RO         2576    i.GPIO_In           stm32util.o
    0x08001a6c   0x000000a2   Code   RO         4905    i.GPIO_Init         stm32f4xx_gpio.o
    0x08001b0e   0x00000012   Code   RO         2577    i.GPIO_Out          stm32util.o
    0x08001b20   0x00000020   Code   RO         4906    i.GPIO_PinAFConfig  stm32f4xx_gpio.o
    0x08001b40   0x0000000e   Code   RO         4911    i.GPIO_ReadOutputDataBit  stm32f4xx_gpio.o
    0x08001b4e   0x00000004   Code   RO         4912    i.GPIO_ResetBits    stm32f4xx_gpio.o
    0x08001b52   0x00000004   Code   RO         4913    i.GPIO_SetBits      stm32f4xx_gpio.o
    0x08001b56   0x0000001c   Code   RO         1840    i.HCP_Rst           hcp.o
    0x08001b72   0x00000002   Code   RO          355    i.HardFault_Handler  stm32f4xx_it.o
    0x08001b74   0x00000058   Code   RO         1081    i.Hci_Init          hci.o
    0x08001bcc   0x0000000c   Code   RO         1123    i.Ini_Check         ini.o
    0x08001bd8   0x0000000c   Code   RO         1124    i.Ini_GetFlag       ini.o
    0x08001be4   0x0000000c   Code   RO         1125    i.Ini_Init          ini.o
    0x08001bf0   0x00000070   Code   RO         1126    i.Ini_Proc          ini.o
    0x08001c60   0x00000036   Code   RO         1157    i.Ios_GetByte       ios.o
    0x08001c96   0x00000002   PAD
    0x08001c98   0x0000001c   Code   RO         1158    i.Ios_Init          ios.o
    0x08001cb4   0x00000020   Code   RO         1159    i.Ios_PutByte       ios.o
    0x08001cd4   0x00000010   Code   RO         1160    i.Ios_SetIn         ios.o
    0x08001ce4   0x00000010   Code   RO         1161    i.Ios_SetOut        ios.o
    0x08001cf4   0x00000020   Code   RO          422    i.KOS_Boot          kos.o
    0x08001d14   0x00000030   Code   RO         2488    i.Led_Config        led.o
    0x08001d44   0x00000006   Code   RO         1361    i.MS_Set            sys.o
    0x08001d4a   0x00000008   Code   RO         1864    i.Maf_Init          maf.o
    0x08001d52   0x00000002   PAD
    0x08001d54   0x00000020   Code   RO         1866    i.Maf_Reset         maf.o
    0x08001d74   0x0000000c   Code   RO         1219    i.Mec_Config        mec.o
    0x08001d80   0x00000010   Code   RO         1220    i.Mec_Decomp        mec.o
    0x08001d90   0x00000010   Code   RO         1221    i.Mec_Init          mec.o
    0x08001da0   0x00000010   Code   RO         1222    i.Mec_Synthe        mec.o
    0x08001db0   0x00000032   Code   RO         1898    i.Mecanum_Config    mecanum.o
    0x08001de2   0x0000008e   Code   RO         1899    i.Mecanum_Decomp    mecanum.o
    0x08001e70   0x00000072   Code   RO         1900    i.Mecanum_Synthe    mecanum.o
    0x08001ee2   0x00000002   Code   RO          356    i.MemManage_Handler  stm32f4xx_it.o
    0x08001ee4   0x0000015c   Code   RO          571    i.Motor_Process     can.o
    0x08002040   0x0000000e   Code   RO          572    i.Motor_Ready       can.o
    0x0800204e   0x00000002   PAD
    0x08002050   0x00000050   Code   RO          573    i.Motor_Reset       can.o
    0x080020a0   0x00000002   Code   RO          357    i.NMI_Handler       stm32f4xx_it.o
    0x080020a2   0x0000001c   Code   RO         2578    i.NVIC_Config       stm32util.o
    0x080020be   0x00000002   PAD
    0x080020c0   0x00000064   Code   RO         2961    i.NVIC_Init         misc.o
    0x08002124   0x00000014   Code   RO         2962    i.NVIC_PriorityGroupConfig  misc.o
    0x08002138   0x00000098   Code   RO         1267    i.Odo_Init          odo.o
    0x080021d0   0x000000e0   Code   RO         1268    i.Odo_Proc          odo.o
    0x080022b0   0x000000e0   Code   RO         1940    i.PID_Calc          pid.o
    0x08002390   0x00000006   Code   RO         1941    i.PID_Config        pid.o
    0x08002396   0x00000002   PAD
    0x08002398   0x00000010   Code   RO          851    i.PID_Init          ctl.o
    0x080023a8   0x00000014   Code   RO         1942    i.PID_Reset         pid.o
    0x080023bc   0x00001544   Code   RO         2579    i.PWM_Bind          stm32util.o
    0x08003900   0x00000002   Code   RO          358    i.PendSV_Handler    stm32f4xx_it.o
    0x08003902   0x00000002   PAD
    0x08003904   0x0000004c   Code   RO         2512    i.Pwm_Config        pwm.o
    0x08003950   0x00000018   Code   RO         5843    i.RCC_AHB1PeriphClockCmd  stm32f4xx_rcc.o
    0x08003968   0x00000018   Code   RO         5852    i.RCC_APB1PeriphClockCmd  stm32f4xx_rcc.o
    0x08003980   0x00000018   Code   RO         5855    i.RCC_APB2PeriphClockCmd  stm32f4xx_rcc.o
    0x08003998   0x00000094   Code   RO         5864    i.RCC_GetClocksFreq  stm32f4xx_rcc.o
    0x08003a2c   0x00000026   Code   RO         1966    i.RCP_Rst           rcp.o
    0x08003a52   0x00000002   PAD
    0x08003a54   0x00000028   Code   RO         1307    i.Rci_Init          rci.o
    0x08003a7c   0x00000002   Code   RO         2153    i.RcvCallback       rcv_srv.o
    0x08003a7e   0x00000002   PAD
    0x08003a80   0x00000094   Code   RO         2536    i.Rcv_Config        rcv.o
    0x08003b14   0x00000028   Code   RO         1988    i.Rmp_Calc          rmp.o
    0x08003b3c   0x00000004   Code   RO         1989    i.Rmp_Config        rmp.o
    0x08003b40   0x00000010   Code   RO          852    i.Rmp_Init          ctl.o
    0x08003b50   0x00000006   Code   RO         1991    i.Rmp_Reset         rmp.o
    0x08003b56   0x00000002   Code   RO          359    i.SVC_Handler       stm32f4xx_it.o
    0x08003b58   0x00000040   Code   RO          452    i.Sch_Arrange       sch.o
    0x08003b98   0x000000d0   Code   RO         8035    i.SetSysClock       system_stm32f4xx.o
    0x08003c68   0x0000001c   Code   RO         2199    i.SyncTimCallback   tim_srv.o
    0x08003c84   0x0000002c   Code   RO         2680    i.SyncTim_Config    tim.o
    0x08003cb0   0x00000028   Code   RO         2681    i.SyncTim_Start     tim.o
    0x08003cd8   0x0000005c   Code   RO         8037    i.SystemInit        system_stm32f4xx.o
    0x08003d34   0x0000002a   Code   RO         2683    i.TIM2_IRQHandler   tim.o
    0x08003d5e   0x00000002   PAD
    0x08003d60   0x00000030   Code   RO         2684    i.TIM6_DAC_IRQHandler  tim.o
    0x08003d90   0x00000014   Code   RO         7228    i.TIM_ARRPreloadConfig  stm32f4xx_tim.o
    0x08003da4   0x00000006   Code   RO         7234    i.TIM_ClearFlag     stm32f4xx_tim.o
    0x08003daa   0x00000006   Code   RO         7235    i.TIM_ClearITPendingBit  stm32f4xx_tim.o
    0x08003db0   0x00000014   Code   RO         7240    i.TIM_Cmd           stm32f4xx_tim.o
    0x08003dc4   0x00000144   Code   RO         2580    i.TIM_Config        stm32util.o
    0x08003f08   0x00000018   Code   RO         7261    i.TIM_GetITStatus   stm32f4xx_tim.o
    0x08003f20   0x00000010   Code   RO         7265    i.TIM_ITConfig      stm32f4xx_tim.o
    0x08003f30   0x00000060   Code   RO         7269    i.TIM_OC1Init       stm32f4xx_tim.o
    0x08003f90   0x0000000c   Code   RO         7272    i.TIM_OC1PreloadConfig  stm32f4xx_tim.o
    0x08003f9c   0x00000080   Code   RO         7274    i.TIM_OC2Init       stm32f4xx_tim.o
    0x0800401c   0x00000014   Code   RO         7277    i.TIM_OC2PreloadConfig  stm32f4xx_tim.o
    0x08004030   0x0000007c   Code   RO         7279    i.TIM_OC3Init       stm32f4xx_tim.o
    0x080040ac   0x0000000c   Code   RO         7282    i.TIM_OC3PreloadConfig  stm32f4xx_tim.o
    0x080040b8   0x00000060   Code   RO         7284    i.TIM_OC4Init       stm32f4xx_tim.o
    0x08004118   0x00000014   Code   RO         7286    i.TIM_OC4PreloadConfig  stm32f4xx_tim.o
    0x0800412c   0x00000082   Code   RO         2581    i.TIM_OC_Config     stm32util.o
    0x080041ae   0x00000002   PAD
    0x080041b0   0x0000007c   Code   RO         7312    i.TIM_TimeBaseInit  stm32f4xx_tim.o
    0x0800422c   0x00000004   Code   RO         2200    i.TickTimCallback   tim_srv.o
    0x08004230   0x00000024   Code   RO         2685    i.TickTim_Config    tim.o
    0x08004254   0x00000022   Code   RO         2686    i.TickTim_Start     tim.o
    0x08004276   0x0000000e   Code   RO         2688    i.Tim_Config        tim.o
    0x08004284   0x0000000e   Code   RO         2689    i.Tim_Start         tim.o
    0x08004292   0x00000004   Code   RO         2119    i.TtyRxCallback     com_srv.o
    0x08004296   0x00000002   PAD
    0x08004298   0x00000070   Code   RO         2759    i.Tty_Config        tty.o
    0x08004308   0x00000006   Code   RO          800    i.Tty_Proc          com.o
    0x0800430e   0x00000002   PAD
    0x08004310   0x00000044   Code   RO         2762    i.Tty_ReadByte      tty.o
    0x08004354   0x00000084   Code   RO         2537    i.USART1_IRQHandler  rcv.o
    0x080043d8   0x00000098   Code   RO         2263    i.USART2_IRQHandler  btm.o
    0x08004470   0x00000098   Code   RO         2427    i.USART3_IRQHandler  dbi.o
    0x08004508   0x00000098   Code   RO         2766    i.USART6_IRQHandler  tty.o
    0x080045a0   0x00000de0   Code   RO         2582    i.USART_Bind        stm32util.o
    0x08005380   0x00000006   Code   RO         7777    i.USART_ClearFlag   stm32f4xx_usart.o
    0x08005386   0x0000000c   Code   RO         7778    i.USART_ClearITPendingBit  stm32f4xx_usart.o
    0x08005392   0x00000014   Code   RO         7781    i.USART_Cmd         stm32f4xx_usart.o
    0x080053a6   0x00000002   PAD
    0x080053a8   0x00000190   Code   RO         2583    i.USART_Config      stm32util.o
    0x08005538   0x00000010   Code   RO         7782    i.USART_DMACmd      stm32f4xx_usart.o
    0x08005548   0x0000000e   Code   RO         7784    i.USART_GetFlagStatus  stm32f4xx_usart.o
    0x08005556   0x0000003e   Code   RO         7785    i.USART_GetITStatus  stm32f4xx_usart.o
    0x08005594   0x00000030   Code   RO         7787    i.USART_ITConfig    stm32f4xx_usart.o
    0x080055c4   0x000000ac   Code   RO         7788    i.USART_Init        stm32f4xx_usart.o
    0x08005670   0x00000008   Code   RO         7795    i.USART_ReceiveData  stm32f4xx_usart.o
    0x08005678   0x00000008   Code   RO         7798    i.USART_SendData    stm32f4xx_usart.o
    0x08005680   0x0000000e   Code   RO         1411    i.Upd_Init          upd.o
    0x0800568e   0x00000044   Code   RO         1412    i.Upd_Proc          upd.o
    0x080056d2   0x00000002   Code   RO          360    i.UsageFault_Handler  stm32f4xx_it.o
    0x080056d4   0x00000010   Code   RO         1438    i.Wdg_Feed          wdg.o
    0x080056e4   0x0000002c   Code   RO         1441    i.Wdg_Init          wdg.o
    0x08005710   0x0000000c   Code   RO         1442    i.Wdg_IsErrSet      wdg.o
    0x0800571c   0x00000044   Code   RO         1443    i.Wdg_Proc          wdg.o
    0x08005760   0x0000000c   Code   RO         1487    i.Wsm_GetLastWorkingState  wsm.o
    0x0800576c   0x0000000c   Code   RO         1488    i.Wsm_GetWorkingState  wsm.o
    0x08005778   0x00000010   Code   RO         1489    i.Wsm_Init          wsm.o
    0x08005788   0x0000005c   Code   RO         1490    i.Wsm_Proc          wsm.o
    0x080057e4   0x00000088   Code   RO          574    i.ZGyro_Process     can.o
    0x0800586c   0x0000000e   Code   RO          575    i.ZGyro_Ready       can.o
    0x0800587a   0x00000002   PAD
    0x0800587c   0x00000028   Code   RO          576    i.ZGyro_Reset       can.o
    0x080058a4   0x00000020   Code   RO         8362    i.__0printf         mc_w.l(printfa.o)
    0x080058c4   0x0000000e   Code   RO         8520    i.__scatterload_copy  mc_w.l(handlers.o)
    0x080058d2   0x00000002   Code   RO         8521    i.__scatterload_null  mc_w.l(handlers.o)
    0x080058d4   0x0000000e   Code   RO         8522    i.__scatterload_zeroinit  mc_w.l(handlers.o)
    0x080058e2   0x00000002   PAD
    0x080058e4   0x00000184   Code   RO         8369    i._fp_digits        mc_w.l(printfa.o)
    0x08005a68   0x000006dc   Code   RO         8370    i._printf_core      mc_w.l(printfa.o)
    0x08006144   0x00000024   Code   RO         8371    i._printf_post_padding  mc_w.l(printfa.o)
    0x08006168   0x0000002e   Code   RO         8372    i._printf_pre_padding  mc_w.l(printfa.o)
    0x08006196   0x00000002   PAD
    0x08006198   0x00000018   Code   RO         1163    i.fputc             ios.o
    0x080061b0   0x0000001c   Code   RO          456    i.getSchTask        sch.o
    0x080061cc   0x0000000a   Code   RO            4    i.main              main.o
    0x080061d6   0x00000002   PAD
    0x080061d8   0x0000006c   Code   RO         8391    i.malloc            mc_w.l(malloc.o)
    0x08006244   0x00000028   Code   RO          457    i.newSchTask        sch.o
    0x0800626c   0x00000128   Data   RO          641    .constdata          cfg.o
    0x08006394   0x00000030   Data   RO         1444    .constdata          wdg.o
    0x080063c4   0x00000020   Data   RO         8518    Region$$Table       anon$$obj.o


    Execution Region RW_IRAM1 (Base: 0x20000000, Size: 0x00002090, Max: 0x00030000, ABSOLUTE, COMPRESSED[0x00000064])

    Base Addr    Size         Type   Attr      Idx    E Section Name        Object

    0x20000000   0x00000008   Data   RW          458    .data               sch.o
    0x20000008   0x00000094   Data   RW          642    .data               cfg.o
    0x2000009c   0x00000004   Data   RW          716    .data               clk.o
    0x200000a0   0x00000004   Data   RW          759    .data               cmd.o
    0x200000a4   0x00000024   Data   RW          854    .data               ctl.o
    0x200000c8   0x00000010   Data   RW         1084    .data               hci.o
    0x200000d8   0x00000004   Data   RW         1127    .data               ini.o
    0x200000dc   0x00000008   Data   RW         1164    .data               ios.o
    0x200000e4   0x00000004   Data   RW         1270    .data               odo.o
    0x200000e8   0x00000010   Data   RW         1309    .data               rci.o
    0x200000f8   0x00000034   Data   RW         1445    .data               wdg.o
    0x2000012c   0x00000002   Data   RW         1491    .data               wsm.o
    0x2000012e   0x00000010   Data   RW         5896    .data               stm32f4xx_rcc.o
    0x2000013e   0x00000002   PAD
    0x20000140   0x00000004   Data   RW         8479    .data               mc_w.l(stdout.o)
    0x20000144   0x00000004   Data   RW         8484    .data               mc_w.l(mvars.o)
    0x20000148   0x00000004   Data   RW         8485    .data               mc_w.l(mvars.o)
    0x2000014c   0x00000298   Zero   RW          577    .bss                can.o
    0x200003e4   0x0000001c   Zero   RW          758    .bss                cmd.o
    0x20000400   0x000000b0   Zero   RW          853    .bss                ctl.o
    0x200004b0   0x00000016   Zero   RW          958    .bss                dci.o
    0x200004c6   0x00000002   PAD
    0x200004c8   0x000000a8   Zero   RW         1083    .bss                hci.o
    0x20000570   0x00000014   Zero   RW         1223    .bss                mec.o
    0x20000584   0x00000048   Zero   RW         1269    .bss                odo.o
    0x200005cc   0x00000228   Zero   RW         2264    .bss                btm.o
    0x200007f4   0x00000228   Zero   RW         2428    .bss                dbi.o
    0x20000a1c   0x00000048   Zero   RW         2538    .bss                rcv.o
    0x20000a64   0x00000228   Zero   RW         2767    .bss                tty.o
    0x20000c8c   0x00000004   PAD
    0x20000c90   0x00001000   Zero   RW         8074    HEAP                startup_stm32f427xx.o
    0x20001c90   0x00000400   Zero   RW         8073    STACK               startup_stm32f427xx.o


==============================================================================

Image component sizes


      Code (inc. data)   RO Data    RW Data    ZI Data      Debug   Object Name

       188         28          0          0          0       1314   act.o
        64          0          0          0          0        970   app.o
        68          4          0          0          0        513   bsp.o
       332         36          0          0        552       2340   btm.o
        12          6          0          0          0        429   btn.o
       844         70          0          0        664       6672   can.o
       216         26          0          0          0       1597   can1.o
       216         24          0          0          0       1605   can2.o
         8          0          0          0          0       1290   can_srv.o
       238         14        296        148          0       4473   cfg.o
        48         16          0          4          0       1486   clk.o
       228         22          0          4         28       1301   cmd.o
        20          0          0          0          0       2996   com.o
        12          0          0          0          0       1428   com_srv.o
       428         50          0         36        176       3330   ctl.o
       332         36          0          0        552       2340   dbi.o
        20          0          0          0          0        799   dbus.o
        24          4          0          0         22        662   dci.o
       116          6          0          0          0       2377   ekf.o
       168          0          0          0          0       3837   fifo.o
        22          0          0          0          0       1021   flash.o
        16          6          0          0          0        747   fos.o
        66          0          0          0          0       2687   fun.o
        88         10          0         16        168       2157   hci.o
        28          0          0          0          0        778   hcp.o
       148         26          0          4          0       2300   ini.o
       170         34          0          8          0       3605   ios.o
        32          6          0          0          0        475   kos.o
        48          8          0          0          0        485   led.o
        40          4          0          0          0       1319   maf.o
        10          0          0          0          0     335811   main.o
        60         24          0          0         20       2496   mec.o
       306          0          0          0          0       2135   mecanum.o
       120         14          0          0          0       1563   misc.o
       150          0          0          0          0       1658   motor.o
       376         34          0          4         72       2134   odo.o
       250         12          0          0          0       2404   pid.o
        76         10          0          0          0        469   pwm.o
        40          4          0         16          0       1659   rci.o
        38          0          0          0          0        794   rcp.o
       280         36          0          0         72       1585   rcv.o
         2          0          0          0          0        714   rcv_srv.o
        50          0          0          0          0       1792   rmp.o
       132         12          0          8          0       2418   sch.o
        36          8        428          0       5120        840   startup_stm32f427xx.o
      1108         24          0          0          0       7674   stm32f4xx_can.o
       166          4          0          0          0       4974   stm32f4xx_dma.o
       216          0          0          0          0       3660   stm32f4xx_gpio.o
        16          0          0          0          0       3644   stm32f4xx_it.o
       220         34          0         16          0       4871   stm32f4xx_rcc.o
       724         60          0          0          0      11340   stm32f4xx_tim.o
       366          8          0          0          0       7512   stm32f4xx_usart.o
     10502        292          0          0          0      18987   stm32util.o
        28          0          0          0          0       3494   sys.o
       300         36          0          0          0       1569   system_stm32f4xx.o
       272         18          0          0          0       4251   tim.o
        32         22          0          0          0        892   tim_srv.o
       332         36          0          0        552       2340   tty.o
        82          0          0          0          0       1278   upd.o
       140         30         48         52          0       2530   wdg.o
       132         22          0          2          0       2142   wsm.o

    ----------------------------------------------------------------------
     20848       1176        804        320       8004     496963   Object Totals
         0          0         32          0          0          0   (incl. Generated)
        46          0          0          2          6          0   (incl. Padding)

    ----------------------------------------------------------------------

      Code (inc. data)   RO Data    RW Data    ZI Data      Debug   Library Member Name

        86          0          0          0          0          0   __dczerorl2.o
         0          0          0          0          0          0   entry.o
         0          0          0          0          0          0   entry10a.o
         0          0          0          0          0          0   entry11a.o
         8          4          0          0          0          0   entry2.o
         4          0          0          0          0          0   entry5.o
         0          0          0          0          0          0   entry7b.o
         0          0          0          0          0          0   entry8b.o
         8          4          0          0          0          0   entry9a.o
        30          0          0          0          0          0   handlers.o
        36          8          0          0          0         68   init.o
         0          0          0          0          0          0   iusefp.o
        30          0          0          0          0         68   llshl.o
        36          0          0          0          0         68   llsshr.o
        32          0          0          0          0         68   llushr.o
       108         16          0          0          0         84   malloc.o
        36          0          0          0          0         68   memcpya.o
        36          0          0          0          0        108   memseta.o
         0          0          0          8          0          0   mvars.o
      2258         90          0          0          0        452   printfa.o
         0          0          0          4          0          0   stdout.o
        44          0          0          0          0         80   uidiv.o
        98          0          0          0          0         92   uldiv.o
        48          0          0          0          0         68   cdrcmple.o
       334          0          0          0          0        148   dadd.o
       222          0          0          0          0        100   ddiv.o
       186          0          0          0          0        176   depilogue.o
        48          0          0          0          0         68   dfixul.o
       228          0          0          0          0         96   dmul.o

    ----------------------------------------------------------------------
      3920        122          0         12          0       1812   Library Totals
         4          0          0          0          0          0   (incl. Padding)

    ----------------------------------------------------------------------

      Code (inc. data)   RO Data    RW Data    ZI Data      Debug   Library Name

      2850        122          0         12          0       1156   mc_w.l
      1066          0          0          0          0        656   mf_w.l

    ----------------------------------------------------------------------
      3920        122          0         12          0       1812   Library Totals

    ----------------------------------------------------------------------

==============================================================================


      Code (inc. data)   RO Data    RW Data    ZI Data      Debug   

     24768       1298        804        332       8004     478623   Grand Totals
     24768       1298        804        100       8004     478623   ELF Image Totals (compressed)
     24768       1298        804        100          0          0   ROM Totals

==============================================================================

    Total RO  Size (Code + RO Data)                25572 (  24.97kB)
    Total RW  Size (RW Data + ZI Data)              8336 (   8.14kB)
    Total ROM Size (Code + RO Data + RW Data)      25672 (  25.07kB)

==============================================================================

